
lebed_sel_tune.elf:     file format elf32-avr

Sections:
Idx Name          Size      VMA       LMA       File off  Algn
  0 .data         0000023a  00800100  00003bfc  00003cb0  2**0
                  CONTENTS, ALLOC, LOAD, DATA
  1 .text         00003bfc  00000000  00000000  000000b4  2**1
                  CONTENTS, ALLOC, LOAD, READONLY, CODE
  2 .bss          000001f1  0080033a  0080033a  00003eea  2**0
                  ALLOC
  3 .eeprom       00000062  00810000  00810000  00003eea  2**0
                  CONTENTS, ALLOC, LOAD, DATA
  4 .comment      00000030  00000000  00000000  00003f4c  2**0
                  CONTENTS, READONLY
  5 .debug_aranges 000005c0  00000000  00000000  00003f7c  2**0
                  CONTENTS, READONLY, DEBUGGING
  6 .debug_info   00008ae3  00000000  00000000  0000453c  2**0
                  CONTENTS, READONLY, DEBUGGING
  7 .debug_abbrev 00001611  00000000  00000000  0000d01f  2**0
                  CONTENTS, READONLY, DEBUGGING
  8 .debug_line   00003cb4  00000000  00000000  0000e630  2**0
                  CONTENTS, READONLY, DEBUGGING
  9 .debug_frame  00001194  00000000  00000000  000122e4  2**2
                  CONTENTS, READONLY, DEBUGGING
 10 .debug_str    000020ce  00000000  00000000  00013478  2**0
                  CONTENTS, READONLY, DEBUGGING
 11 .debug_loc    0000605d  00000000  00000000  00015546  2**0
                  CONTENTS, READONLY, DEBUGGING
 12 .debug_ranges 000005e0  00000000  00000000  0001b5a3  2**0
                  CONTENTS, READONLY, DEBUGGING

Disassembly of section .text:

00000000 <__vectors>:
       0:	83 c0       	rjmp	.+262    	; 0x108 <_StackPaint>
       2:	00 00       	nop
       4:	c7 c0       	rjmp	.+398    	; 0x194 <__bad_interrupt>
       6:	00 00       	nop
       8:	c5 c0       	rjmp	.+394    	; 0x194 <__bad_interrupt>
       a:	00 00       	nop
       c:	c3 c0       	rjmp	.+390    	; 0x194 <__bad_interrupt>
       e:	00 00       	nop
      10:	c1 c0       	rjmp	.+386    	; 0x194 <__bad_interrupt>
      12:	00 00       	nop
      14:	bf c0       	rjmp	.+382    	; 0x194 <__bad_interrupt>
      16:	00 00       	nop
      18:	bd c0       	rjmp	.+378    	; 0x194 <__bad_interrupt>
      1a:	00 00       	nop
      1c:	bb c0       	rjmp	.+374    	; 0x194 <__bad_interrupt>
      1e:	00 00       	nop
      20:	b9 c0       	rjmp	.+370    	; 0x194 <__bad_interrupt>
      22:	00 00       	nop
      24:	b7 c0       	rjmp	.+366    	; 0x194 <__bad_interrupt>
      26:	00 00       	nop
      28:	b5 c0       	rjmp	.+362    	; 0x194 <__bad_interrupt>
      2a:	00 00       	nop
      2c:	b3 c0       	rjmp	.+358    	; 0x194 <__bad_interrupt>
      2e:	00 00       	nop
      30:	b1 c0       	rjmp	.+354    	; 0x194 <__bad_interrupt>
      32:	00 00       	nop
      34:	af c0       	rjmp	.+350    	; 0x194 <__bad_interrupt>
      36:	00 00       	nop
      38:	ad c0       	rjmp	.+346    	; 0x194 <__bad_interrupt>
      3a:	00 00       	nop
      3c:	ab c0       	rjmp	.+342    	; 0x194 <__bad_interrupt>
      3e:	00 00       	nop
      40:	a9 c0       	rjmp	.+338    	; 0x194 <__bad_interrupt>
      42:	00 00       	nop
      44:	a7 c0       	rjmp	.+334    	; 0x194 <__bad_interrupt>
      46:	00 00       	nop
      48:	a5 c0       	rjmp	.+330    	; 0x194 <__bad_interrupt>
      4a:	00 00       	nop
      4c:	a3 c0       	rjmp	.+326    	; 0x194 <__bad_interrupt>
      4e:	00 00       	nop
      50:	a1 c0       	rjmp	.+322    	; 0x194 <__bad_interrupt>
      52:	00 00       	nop
      54:	9f c0       	rjmp	.+318    	; 0x194 <__bad_interrupt>
      56:	00 00       	nop
      58:	9d c0       	rjmp	.+314    	; 0x194 <__bad_interrupt>
      5a:	00 00       	nop
      5c:	9b c0       	rjmp	.+310    	; 0x194 <__bad_interrupt>
      5e:	00 00       	nop
      60:	99 c0       	rjmp	.+306    	; 0x194 <__bad_interrupt>
      62:	00 00       	nop
      64:	97 c0       	rjmp	.+302    	; 0x194 <__bad_interrupt>
      66:	00 00       	nop
      68:	95 c0       	rjmp	.+298    	; 0x194 <__bad_interrupt>
      6a:	00 00       	nop
      6c:	93 c0       	rjmp	.+294    	; 0x194 <__bad_interrupt>
      6e:	00 00       	nop
      70:	91 c0       	rjmp	.+290    	; 0x194 <__bad_interrupt>
      72:	00 00       	nop
      74:	8f c0       	rjmp	.+286    	; 0x194 <__bad_interrupt>
      76:	00 00       	nop
      78:	0c 94 64 14 	jmp	0x28c8	; 0x28c8 <__vector_30>
      7c:	8b c0       	rjmp	.+278    	; 0x194 <__bad_interrupt>
      7e:	00 00       	nop
      80:	89 c0       	rjmp	.+274    	; 0x194 <__bad_interrupt>
      82:	00 00       	nop
      84:	87 c0       	rjmp	.+270    	; 0x194 <__bad_interrupt>
      86:	00 00       	nop
      88:	85 c0       	rjmp	.+266    	; 0x194 <__bad_interrupt>
	...

0000008c <__trampolines_end>:
      8c:	41 a0       	ldd	r4, Z+33	; 0x21
      8e:	42 a1       	ldd	r20, Z+34	; 0x22
      90:	e0 45       	sbci	r30, 0x50	; 80
      92:	a3 a4       	ldd	r10, Z+43	; 0x2b
      94:	a5 a6       	std	Z+45, r10	; 0x2d
      96:	4b a7       	std	Y+43, r20	; 0x2b
      98:	4d 48       	sbci	r20, 0x8D	; 141
      9a:	4f a8       	ldd	r4, Y+55	; 0x37
      9c:	50 43       	sbci	r21, 0x30	; 48
      9e:	54 a9       	ldd	r21, Z+52	; 0x34
      a0:	aa 58       	subi	r26, 0x8A	; 138
      a2:	e1 ab       	std	Z+49, r30	; 0x31
      a4:	ac e2       	ldi	r26, 0x2C	; 44
      a6:	ad ae       	std	Y+61, r10	; 0x3d
      a8:	62 af       	std	Z+58, r22	; 0x3a
      aa:	b0 b1       	in	r27, 0x00	; 0
      ac:	61 b2       	in	r6, 0x11	; 17
      ae:	b3 b4       	in	r11, 0x23	; 35
      b0:	e3 65       	ori	r30, 0x53	; 83
      b2:	b6 b7       	in	r27, 0x36	; 54
      b4:	b8 b9       	out	0x08, r27	; 8
      b6:	ba bb       	out	0x1a, r27	; 26
      b8:	bc bd       	out	0x2c, r27	; 44
      ba:	6f be       	out	0x3f, r6	; 63
      bc:	70 63       	ori	r23, 0x30	; 48
      be:	bf 79       	andi	r27, 0x9F	; 159
      c0:	e4 78       	andi	r30, 0x84	; 132
      c2:	e5 c0       	rjmp	.+458    	; 0x28e <_Z21Write_DATA_SPI_ALTERAh+0x3a>
      c4:	c1 e6       	ldi	r28, 0x61	; 97
      c6:	c2 c3       	rjmp	.+1924   	; 0x84c <_Z12ScanKeyboardPFvhE+0x46>
      c8:	c4 c5       	rjmp	.+2952   	; 0xc52 <_ZN9CMenuItem9initClassEPcS0_PS_PS1_cPFvS1_ES4_S4_S4_S4_S4_S4_cS0_cS0_+0x112>
      ca:	c6 c7       	rjmp	.+3980   	; 0x1058 <_Z41__static_initialization_and_destruction_0ii+0x274>

000000cc <_ZL13g_commandFunc>:
      cc:	f2 16 03 17 2a 15 35 14 bb 13 82 1a 31 15 6d 15     ....*.5.....1.m.
      dc:	be 13 c3 13 06 16 5c 14 e5 17 e4 13                 ......\.....

000000e8 <_ZL18g_comandLengthList>:
      e8:	07 07 0c 02 01 01 07 13 00 00 02 00 00 00           ..............

000000f6 <_ZL12g_comandList>:
      f6:	80 46 85 84 86 87 90 91 92 81 95 96 97 ff           .F............

00000104 <__ctors_start>:
     104:	ab 1a       	sub	r10, r27

00000106 <__ctors_end>:
     106:	b2 1a       	sub	r11, r18

00000108 <_StackPaint>:
 *  the maximum stack usage of the running application.
 */
void _StackPaint(void) __attribute__((naked)) __attribute__((optimize("O3"))) __attribute__((section (".init1")));
void _StackPaint(void)
{
	uint32_t* fill_start = (uint32_t*)__ALIGN32_UPWARDS(&_end);
     108:	eb e2       	ldi	r30, 0x2B	; 43
     10a:	f5 e0       	ldi	r31, 0x05	; 5
     10c:	e3 70       	andi	r30, 0x03	; 3
     10e:	ff 27       	eor	r31, r31
     110:	e5 5d       	subi	r30, 0xD5	; 213
     112:	fa 4f       	sbci	r31, 0xFA	; 250
	uint32_t* fill_end   = (uint32_t*)__ALIGN32_DOWNWARDS(&__stack);
     114:	2f ef       	ldi	r18, 0xFF	; 255
     116:	30 e1       	ldi	r19, 0x10	; 16
     118:	2c 7f       	andi	r18, 0xFC	; 252
	
	for (uint32_t* fill_pos = fill_start; fill_pos < fill_end; fill_pos++)
     11a:	e2 17       	cp	r30, r18
     11c:	f3 07       	cpc	r31, r19
     11e:	58 f4       	brcc	.+22     	; 0x136 <_StackPaint+0x2e>
		*fill_pos = __SWAP_ENDIAN32(0xDEADBEEF);
     120:	8e ed       	ldi	r24, 0xDE	; 222
     122:	9d ea       	ldi	r25, 0xAD	; 173
     124:	ae eb       	ldi	r26, 0xBE	; 190
     126:	bf ee       	ldi	r27, 0xEF	; 239
     128:	81 93       	st	Z+, r24
     12a:	91 93       	st	Z+, r25
     12c:	a1 93       	st	Z+, r26
     12e:	b1 93       	st	Z+, r27
void _StackPaint(void)
{
	uint32_t* fill_start = (uint32_t*)__ALIGN32_UPWARDS(&_end);
	uint32_t* fill_end   = (uint32_t*)__ALIGN32_DOWNWARDS(&__stack);
	
	for (uint32_t* fill_pos = fill_start; fill_pos < fill_end; fill_pos++)
     130:	e2 17       	cp	r30, r18
     132:	f3 07       	cpc	r31, r19
     134:	c8 f3       	brcs	.-14     	; 0x128 <_StackPaint+0x20>
     136:	11 24       	eor	r1, r1
     138:	1f be       	out	0x3f, r1	; 63
     13a:	cf ef       	ldi	r28, 0xFF	; 255
     13c:	d0 e1       	ldi	r29, 0x10	; 16
     13e:	de bf       	out	0x3e, r29	; 62
     140:	cd bf       	out	0x3d, r28	; 61

00000142 <__do_copy_data>:
     142:	13 e0       	ldi	r17, 0x03	; 3
     144:	a0 e0       	ldi	r26, 0x00	; 0
     146:	b1 e0       	ldi	r27, 0x01	; 1
     148:	ec ef       	ldi	r30, 0xFC	; 252
     14a:	fb e3       	ldi	r31, 0x3B	; 59
     14c:	00 e0       	ldi	r16, 0x00	; 0
     14e:	0b bf       	out	0x3b, r16	; 59
     150:	02 c0       	rjmp	.+4      	; 0x156 <__do_copy_data+0x14>
     152:	07 90       	elpm	r0, Z+
     154:	0d 92       	st	X+, r0
     156:	aa 33       	cpi	r26, 0x3A	; 58
     158:	b1 07       	cpc	r27, r17
     15a:	d9 f7       	brne	.-10     	; 0x152 <__do_copy_data+0x10>

0000015c <__do_clear_bss>:
     15c:	25 e0       	ldi	r18, 0x05	; 5
     15e:	aa e3       	ldi	r26, 0x3A	; 58
     160:	b3 e0       	ldi	r27, 0x03	; 3
     162:	01 c0       	rjmp	.+2      	; 0x166 <.do_clear_bss_start>

00000164 <.do_clear_bss_loop>:
     164:	1d 92       	st	X+, r1

00000166 <.do_clear_bss_start>:
     166:	ab 32       	cpi	r26, 0x2B	; 43
     168:	b2 07       	cpc	r27, r18
     16a:	e1 f7       	brne	.-8      	; 0x164 <.do_clear_bss_loop>

0000016c <__do_global_ctors>:
     16c:	11 e0       	ldi	r17, 0x01	; 1
     16e:	c6 e0       	ldi	r28, 0x06	; 6
     170:	d1 e0       	ldi	r29, 0x01	; 1
     172:	00 e0       	ldi	r16, 0x00	; 0
     174:	06 c0       	rjmp	.+12     	; 0x182 <__do_global_ctors+0x16>
     176:	22 97       	sbiw	r28, 0x02	; 2
     178:	01 09       	sbc	r16, r1
     17a:	fe 01       	movw	r30, r28
     17c:	0b bf       	out	0x3b, r16	; 59
     17e:	0e 94 8b 1d 	call	0x3b16	; 0x3b16 <__tablejump_elpm__>
     182:	c4 30       	cpi	r28, 0x04	; 4
     184:	d1 07       	cpc	r29, r17
     186:	80 e0       	ldi	r24, 0x00	; 0
     188:	08 07       	cpc	r16, r24
     18a:	a9 f7       	brne	.-22     	; 0x176 <__do_global_ctors+0xa>
     18c:	0e 94 88 1a 	call	0x3510	; 0x3510 <main>
     190:	0c 94 ed 1d 	jmp	0x3bda	; 0x3bda <__do_global_dtors>

00000194 <__bad_interrupt>:
     194:	35 cf       	rjmp	.-406    	; 0x0 <__vectors>

00000196 <_Z8read_adch>:
{
// 	DDRB |= _BV(0);
// 	PORTB |= _BV(0);
	ADMUX = (1 << REFS1)|(1<< REFS0)|	//подключаем опорное к внутреннему источнику
	(1 << ADLAR)|				//левосторнний формат вывода битов
	(pin & 0x07);				//и утсанавливаем с какого пина читать
     196:	87 70       	andi	r24, 0x07	; 7
     198:	80 6e       	ori	r24, 0xE0	; 224
     19a:	87 b9       	out	0x07, r24	; 7
			(1 << ADSC)|				//запускаем преобразование
			(0 << ADFR)|			//однократный запуск
			(0 << ADIF)|			//флаг прерывания
	
			(0 << ADIE)| //запрещаем прерывания от АЦП
			(1 << ADPS2)|(1 << ADPS1)|(0 << ADPS0);	//тактовая частота F_CPU/64 = 172.8 kHz
     19c:	86 ec       	ldi	r24, 0xC6	; 198
     19e:	86 b9       	out	0x06, r24	; 6
			
	while(ADCSRA & _BV(ADSC)){_delay_us(2);};			//ждем окончания преобразования
     1a0:	36 9b       	sbis	0x06, 6	; 6
     1a2:	06 c0       	rjmp	.+12     	; 0x1b0 <_Z8read_adch+0x1a>
	#else
		//round up by default
		__ticks_dc = (uint32_t)(ceil(fabs(__tmp)));
	#endif

	__builtin_avr_delay_cycles(__ticks_dc);
     1a4:	87 e0       	ldi	r24, 0x07	; 7
     1a6:	8a 95       	dec	r24
     1a8:	f1 f7       	brne	.-4      	; 0x1a6 <_Z8read_adch+0x10>
     1aa:	00 c0       	rjmp	.+0      	; 0x1ac <_Z8read_adch+0x16>
     1ac:	36 99       	sbic	0x06, 6	; 6
     1ae:	fa cf       	rjmp	.-12     	; 0x1a4 <_Z8read_adch+0xe>
//	PORTB &= ~_BV(0);	
	return ADCH;
     1b0:	85 b1       	in	r24, 0x05	; 5
}
     1b2:	08 95       	ret

000001b4 <_Z15read_steady_adch>:

char read_steady_adc(unsigned char pin){//определение уровня по окончании переходных процессов
     1b4:	1f 93       	push	r17
     1b6:	cf 93       	push	r28
     1b8:	df 93       	push	r29
     1ba:	18 2f       	mov	r17, r24
	char adc_ampl[3]={0,1,2};
     1bc:	c0 e0       	ldi	r28, 0x00	; 0
     1be:	d1 e0       	ldi	r29, 0x01	; 1
     1c0:	02 c0       	rjmp	.+4      	; 0x1c6 <_Z15read_steady_adch+0x12>
     1c2:	dc 2f       	mov	r29, r28
	while(ADCSRA & _BV(ADSC)){_delay_us(2);};			//ждем окончания преобразования
//	PORTB &= ~_BV(0);	
	return ADCH;
}

char read_steady_adc(unsigned char pin){//определение уровня по окончании переходных процессов
     1c4:	c8 2f       	mov	r28, r24
     1c6:	88 eb       	ldi	r24, 0xB8	; 184
     1c8:	8a 95       	dec	r24
     1ca:	f1 f7       	brne	.-4      	; 0x1c8 <_Z15read_steady_adch+0x14>
     1cc:	00 00       	nop
	char adc_ampl[3]={0,1,2};
	while( !((adc_ampl[0] == adc_ampl[1]) && (adc_ampl[1] == adc_ampl[2])) ){
	_delay_us(50)	;
	adc_ampl[2] = adc_ampl[1];
	adc_ampl[1] = adc_ampl[0];	
	adc_ampl[0] = read_adc(pin);
     1ce:	81 2f       	mov	r24, r17
     1d0:	e2 df       	rcall	.-60     	; 0x196 <_Z8read_adch>
	return ADCH;
}

char read_steady_adc(unsigned char pin){//определение уровня по окончании переходных процессов
	char adc_ampl[3]={0,1,2};
	while( !((adc_ampl[0] == adc_ampl[1]) && (adc_ampl[1] == adc_ampl[2])) ){
     1d2:	8c 13       	cpse	r24, r28
     1d4:	f6 cf       	rjmp	.-20     	; 0x1c2 <_Z15read_steady_adch+0xe>
     1d6:	8d 13       	cpse	r24, r29
     1d8:	f4 cf       	rjmp	.-24     	; 0x1c2 <_Z15read_steady_adch+0xe>
	adc_ampl[2] = adc_ampl[1];
	adc_ampl[1] = adc_ampl[0];	
	adc_ampl[0] = read_adc(pin);
	}
	
     1da:	df 91       	pop	r29
     1dc:	cf 91       	pop	r28
     1de:	1f 91       	pop	r17
     1e0:	08 95       	ret

000001e2 <_Z23Write_Adress_SPI_ALTERAj>:
 *  Author: USER
 */ 
 #include "altera.h"        
 //////////////////////////////////////////////////////////////////////////
  void Write_Adress_SPI_ALTERA(unsigned int ADRESS)
{
     1e2:	cf 93       	push	r28
     1e4:	df 93       	push	r29
     1e6:	cd b7       	in	r28, 0x3d	; 61
     1e8:	de b7       	in	r29, 0x3e	; 62
     1ea:	68 97       	sbiw	r28, 0x18	; 24
     1ec:	0f b6       	in	r0, 0x3f	; 63
     1ee:	f8 94       	cli
     1f0:	de bf       	out	0x3e, r29	; 62
     1f2:	0f be       	out	0x3f, r0	; 63
     1f4:	cd bf       	out	0x3d, r28	; 61
 unsigned char m;
 unsigned int tmp[12]={2048,1024,512,256,128, 64, 32, 16, 8, 4 ,2 ,1};  
     1f6:	28 e1       	ldi	r18, 0x18	; 24
     1f8:	e6 e0       	ldi	r30, 0x06	; 6
     1fa:	f2 e0       	ldi	r31, 0x02	; 2
     1fc:	de 01       	movw	r26, r28
     1fe:	11 96       	adiw	r26, 0x01	; 1
     200:	01 90       	ld	r0, Z+
     202:	0d 92       	st	X+, r0
     204:	2a 95       	dec	r18
     206:	e1 f7       	brne	.-8      	; 0x200 <_Z23Write_Adress_SPI_ALTERAj+0x1e>
 
 SET_ALTERA_SCLK(0);
     208:	a8 98       	cbi	0x15, 0	; 21
     20a:	24 e0       	ldi	r18, 0x04	; 4
     20c:	2a 95       	dec	r18
     20e:	f1 f7       	brne	.-4      	; 0x20c <_Z23Write_Adress_SPI_ALTERAj+0x2a>
     210:	fe 01       	movw	r30, r28
     212:	31 96       	adiw	r30, 0x01	; 1
     214:	be 01       	movw	r22, r28
     216:	67 5e       	subi	r22, 0xE7	; 231
     218:	7f 4f       	sbci	r23, 0xFF	; 255
 _delay_us(1); 
 for (m=0;m<12;m++)
 {   

 SET_ALTERA_SDI(((ADRESS&tmp[m])==tmp[m]));
     21a:	21 91       	ld	r18, Z+
     21c:	31 91       	ld	r19, Z+
     21e:	a9 01       	movw	r20, r18
     220:	48 23       	and	r20, r24
     222:	59 23       	and	r21, r25
     224:	24 17       	cp	r18, r20
     226:	35 07       	cpc	r19, r21
     228:	11 f0       	breq	.+4      	; 0x22e <_Z23Write_Adress_SPI_ALTERAj+0x4c>
     22a:	a9 98       	cbi	0x15, 1	; 21
     22c:	01 c0       	rjmp	.+2      	; 0x230 <_Z23Write_Adress_SPI_ALTERAj+0x4e>
     22e:	a9 9a       	sbi	0x15, 1	; 21
 SET_ALTERA_SCLK(1);
     230:	a8 9a       	sbi	0x15, 0	; 21
     232:	2f e0       	ldi	r18, 0x0F	; 15
     234:	2a 95       	dec	r18
     236:	f1 f7       	brne	.-4      	; 0x234 <_Z23Write_Adress_SPI_ALTERAj+0x52>
 delay_us(4); //скважность около 2
  SET_ALTERA_SCLK(0);
     238:	a8 98       	cbi	0x15, 0	; 21
 unsigned char m;
 unsigned int tmp[12]={2048,1024,512,256,128, 64, 32, 16, 8, 4 ,2 ,1};  
 
 SET_ALTERA_SCLK(0);
 _delay_us(1); 
 for (m=0;m<12;m++)
     23a:	e6 17       	cp	r30, r22
     23c:	f7 07       	cpc	r31, r23
     23e:	69 f7       	brne	.-38     	; 0x21a <_Z23Write_Adress_SPI_ALTERAj+0x38>
 SET_ALTERA_SCLK(1);
 delay_us(4); //скважность около 2
  SET_ALTERA_SCLK(0);
 } 
 
 SET_ALTERA_SDI(0);
     240:	a9 98       	cbi	0x15, 1	; 21
}    
     242:	68 96       	adiw	r28, 0x18	; 24
     244:	0f b6       	in	r0, 0x3f	; 63
     246:	f8 94       	cli
     248:	de bf       	out	0x3e, r29	; 62
     24a:	0f be       	out	0x3f, r0	; 63
     24c:	cd bf       	out	0x3d, r28	; 61
     24e:	df 91       	pop	r29
     250:	cf 91       	pop	r28
     252:	08 95       	ret

00000254 <_Z21Write_DATA_SPI_ALTERAh>:
//////////////////////////////////////////////////////////////////////////
  void Write_DATA_SPI_ALTERA(unsigned char DATA)
{
     254:	cf 93       	push	r28
     256:	df 93       	push	r29
     258:	cd b7       	in	r28, 0x3d	; 61
     25a:	de b7       	in	r29, 0x3e	; 62
     25c:	28 97       	sbiw	r28, 0x08	; 8
     25e:	0f b6       	in	r0, 0x3f	; 63
     260:	f8 94       	cli
     262:	de bf       	out	0x3e, r29	; 62
     264:	0f be       	out	0x3f, r0	; 63
     266:	cd bf       	out	0x3d, r28	; 61
 unsigned char m;
 unsigned char tmp[8]={128, 64, 32, 16, 8, 4 ,2 ,1};  
     268:	98 e0       	ldi	r25, 0x08	; 8
     26a:	ee e1       	ldi	r30, 0x1E	; 30
     26c:	f2 e0       	ldi	r31, 0x02	; 2
     26e:	de 01       	movw	r26, r28
     270:	11 96       	adiw	r26, 0x01	; 1
     272:	01 90       	ld	r0, Z+
     274:	0d 92       	st	X+, r0
     276:	9a 95       	dec	r25
     278:	e1 f7       	brne	.-8      	; 0x272 <_Z21Write_DATA_SPI_ALTERAh+0x1e>
  SET_ALTERA_SCLK(0);
     27a:	a8 98       	cbi	0x15, 0	; 21
     27c:	94 e0       	ldi	r25, 0x04	; 4
     27e:	9a 95       	dec	r25
     280:	f1 f7       	brne	.-4      	; 0x27e <_Z21Write_DATA_SPI_ALTERAh+0x2a>
     282:	fe 01       	movw	r30, r28
     284:	31 96       	adiw	r30, 0x01	; 1
     286:	9e 01       	movw	r18, r28
     288:	27 5f       	subi	r18, 0xF7	; 247
     28a:	3f 4f       	sbci	r19, 0xFF	; 255
 delay_us(1);  
 for (m=0;m<8;m++)
 {   

 SET_ALTERA_SDI((DATA&tmp[m])==tmp[m]); 
     28c:	91 91       	ld	r25, Z+
     28e:	49 2f       	mov	r20, r25
     290:	48 23       	and	r20, r24
     292:	94 17       	cp	r25, r20
     294:	11 f0       	breq	.+4      	; 0x29a <_Z21Write_DATA_SPI_ALTERAh+0x46>
     296:	a9 98       	cbi	0x15, 1	; 21
     298:	01 c0       	rjmp	.+2      	; 0x29c <_Z21Write_DATA_SPI_ALTERAh+0x48>
     29a:	a9 9a       	sbi	0x15, 1	; 21
   SET_ALTERA_SCLK(1);
     29c:	a8 9a       	sbi	0x15, 0	; 21
     29e:	9f e0       	ldi	r25, 0x0F	; 15
     2a0:	9a 95       	dec	r25
     2a2:	f1 f7       	brne	.-4      	; 0x2a0 <_Z21Write_DATA_SPI_ALTERAh+0x4c>
 delay_us(4); //скважность около 2
   SET_ALTERA_SCLK(0); 
     2a4:	a8 98       	cbi	0x15, 0	; 21
{
 unsigned char m;
 unsigned char tmp[8]={128, 64, 32, 16, 8, 4 ,2 ,1};  
  SET_ALTERA_SCLK(0);
 delay_us(1);  
 for (m=0;m<8;m++)
     2a6:	e2 17       	cp	r30, r18
     2a8:	f3 07       	cpc	r31, r19
     2aa:	81 f7       	brne	.-32     	; 0x28c <_Z21Write_DATA_SPI_ALTERAh+0x38>
 SET_ALTERA_SDI((DATA&tmp[m])==tmp[m]); 
   SET_ALTERA_SCLK(1);
 delay_us(4); //скважность около 2
   SET_ALTERA_SCLK(0); 
 } 
  SET_ALTERA_SDI(0);
     2ac:	a9 98       	cbi	0x15, 1	; 21
}  
     2ae:	28 96       	adiw	r28, 0x08	; 8
     2b0:	0f b6       	in	r0, 0x3f	; 63
     2b2:	f8 94       	cli
     2b4:	de bf       	out	0x3e, r29	; 62
     2b6:	0f be       	out	0x3f, r0	; 63
     2b8:	cd bf       	out	0x3d, r28	; 61
     2ba:	df 91       	pop	r29
     2bc:	cf 91       	pop	r28
     2be:	08 95       	ret

000002c0 <_Z20Read_DATA_SPI_ALTERAv>:
//////////////////////////////////////////////////////////////////////////
  unsigned char Read_DATA_SPI_ALTERA()
{
     2c0:	cf 93       	push	r28
     2c2:	df 93       	push	r29
     2c4:	cd b7       	in	r28, 0x3d	; 61
     2c6:	de b7       	in	r29, 0x3e	; 62
     2c8:	28 97       	sbiw	r28, 0x08	; 8
     2ca:	0f b6       	in	r0, 0x3f	; 63
     2cc:	f8 94       	cli
     2ce:	de bf       	out	0x3e, r29	; 62
     2d0:	0f be       	out	0x3f, r0	; 63
     2d2:	cd bf       	out	0x3d, r28	; 61
 unsigned char m,b;
 unsigned char tmp[8]={128, 64, 32, 16, 8, 4 ,2 ,1};  
     2d4:	88 e0       	ldi	r24, 0x08	; 8
     2d6:	ee e1       	ldi	r30, 0x1E	; 30
     2d8:	f2 e0       	ldi	r31, 0x02	; 2
     2da:	de 01       	movw	r26, r28
     2dc:	11 96       	adiw	r26, 0x01	; 1
     2de:	01 90       	ld	r0, Z+
     2e0:	0d 92       	st	X+, r0
     2e2:	8a 95       	dec	r24
     2e4:	e1 f7       	brne	.-8      	; 0x2de <_Z20Read_DATA_SPI_ALTERAv+0x1e>
     2e6:	fe 01       	movw	r30, r28
     2e8:	31 96       	adiw	r30, 0x01	; 1
     2ea:	9e 01       	movw	r18, r28
     2ec:	27 5f       	subi	r18, 0xF7	; 247
     2ee:	3f 4f       	sbci	r19, 0xFF	; 255
 
 b=0;
     2f0:	80 e0       	ldi	r24, 0x00	; 0
 for (m=0;m<8;m++)
 {  
  SET_ALTERA_SCLK(0);
     2f2:	a8 98       	cbi	0x15, 0	; 21
     2f4:	9b e0       	ldi	r25, 0x0B	; 11
     2f6:	9a 95       	dec	r25
     2f8:	f1 f7       	brne	.-4      	; 0x2f6 <_Z20Read_DATA_SPI_ALTERAv+0x36>
     2fa:	00 00       	nop
  _delay_us(3);
 b=b + GET_ALTERA_SDO*tmp[m]; 
     2fc:	93 b3       	in	r25, 0x13	; 19
     2fe:	41 91       	ld	r20, Z+
     300:	92 fb       	bst	r25, 2
     302:	99 27       	eor	r25, r25
     304:	90 f9       	bld	r25, 0
     306:	49 9f       	mul	r20, r25
     308:	80 0d       	add	r24, r0
     30a:	11 24       	eor	r1, r1
  SET_ALTERA_SCLK(1); 
     30c:	a8 9a       	sbi	0x15, 0	; 21
     30e:	97 e0       	ldi	r25, 0x07	; 7
     310:	9a 95       	dec	r25
     312:	f1 f7       	brne	.-4      	; 0x310 <_Z20Read_DATA_SPI_ALTERAv+0x50>
     314:	00 c0       	rjmp	.+0      	; 0x316 <_Z20Read_DATA_SPI_ALTERAv+0x56>
{
 unsigned char m,b;
 unsigned char tmp[8]={128, 64, 32, 16, 8, 4 ,2 ,1};  
 
 b=0;
 for (m=0;m<8;m++)
     316:	e2 17       	cp	r30, r18
     318:	f3 07       	cpc	r31, r19
     31a:	59 f7       	brne	.-42     	; 0x2f2 <_Z20Read_DATA_SPI_ALTERAv+0x32>
  _delay_us(3);
 b=b + GET_ALTERA_SDO*tmp[m]; 
  SET_ALTERA_SCLK(1); 
 delay_us(2);  // скважность около 2
 }  
  SET_ALTERA_SCLK(0);  
     31c:	a8 98       	cbi	0x15, 0	; 21
 return b;
}
     31e:	28 96       	adiw	r28, 0x08	; 8
     320:	0f b6       	in	r0, 0x3f	; 63
     322:	f8 94       	cli
     324:	de bf       	out	0x3e, r29	; 62
     326:	0f be       	out	0x3f, r0	; 63
     328:	cd bf       	out	0x3d, r28	; 61
     32a:	df 91       	pop	r29
     32c:	cf 91       	pop	r28
     32e:	08 95       	ret

00000330 <_Z14Write_ControlljPh>:
//////////////////////////////////////////////////////////////////////////

  void Write_Controll(unsigned int adress,unsigned char* ad)
{
     330:	0f 93       	push	r16
     332:	1f 93       	push	r17
     334:	cf 93       	push	r28
     336:	df 93       	push	r29
     338:	06 2f       	mov	r16, r22
     33a:	17 2f       	mov	r17, r23
unsigned char k;  
 SET_ALTERA_CS2(0); SET_ALTERA_CS3(0);
     33c:	ae 98       	cbi	0x15, 6	; 21
     33e:	af 98       	cbi	0x15, 7	; 21
 SET_ALTERA_CS1(0);
     340:	ad 98       	cbi	0x15, 5	; 21
Write_Adress_SPI_ALTERA(adress);
     342:	4f df       	rcall	.-354    	; 0x1e2 <_Z23Write_Adress_SPI_ALTERAj>
     344:	84 e0       	ldi	r24, 0x04	; 4
     346:	8a 95       	dec	r24
     348:	f1 f7       	brne	.-4      	; 0x346 <_Z14Write_ControlljPh+0x16>
     34a:	c0 2f       	mov	r28, r16
     34c:	d1 2f       	mov	r29, r17
delay_us(1);
for (k=0;k<4;k++) Write_DATA_SPI_ALTERA(ad[k]); //  Write_DATA_SPI_ALTERA(*(ad+k));
     34e:	10 e0       	ldi	r17, 0x00	; 0
     350:	89 91       	ld	r24, Y+
     352:	80 df       	rcall	.-256    	; 0x254 <_Z21Write_DATA_SPI_ALTERAh>
     354:	1f 5f       	subi	r17, 0xFF	; 255
     356:	14 30       	cpi	r17, 0x04	; 4
     358:	d9 f7       	brne	.-10     	; 0x350 <_Z14Write_ControlljPh+0x20>
 SET_ALTERA_CS1(1);  
     35a:	ad 9a       	sbi	0x15, 5	; 21
}
     35c:	df 91       	pop	r29
     35e:	cf 91       	pop	r28
     360:	1f 91       	pop	r17
     362:	0f 91       	pop	r16
     364:	08 95       	ret

00000366 <_Z13Read_ControlljPh>:

//////////////////////////////////////////////////////////////////////////
  void Read_Controll(unsigned int adress,unsigned char* ad)
{
     366:	0f 93       	push	r16
     368:	1f 93       	push	r17
     36a:	cf 93       	push	r28
     36c:	df 93       	push	r29
     36e:	06 2f       	mov	r16, r22
     370:	17 2f       	mov	r17, r23
unsigned char k; 
 SET_ALTERA_CS2(0); SET_ALTERA_CS3(0); 
     372:	ae 98       	cbi	0x15, 6	; 21
     374:	af 98       	cbi	0x15, 7	; 21
 SET_ALTERA_CS1(0);
     376:	ad 98       	cbi	0x15, 5	; 21
Write_Adress_SPI_ALTERA(adress);
     378:	34 df       	rcall	.-408    	; 0x1e2 <_Z23Write_Adress_SPI_ALTERAj>
     37a:	84 e0       	ldi	r24, 0x04	; 4
     37c:	8a 95       	dec	r24
     37e:	f1 f7       	brne	.-4      	; 0x37c <_Z13Read_ControlljPh+0x16>
     380:	c0 2f       	mov	r28, r16
     382:	d1 2f       	mov	r29, r17
delay_us(1);
for (k=0;k<4;k++)  ad[k]=Read_DATA_SPI_ALTERA(); //*(ad+k)=Read_DATA_SPI_ALTERA();
     384:	10 e0       	ldi	r17, 0x00	; 0
     386:	9c df       	rcall	.-200    	; 0x2c0 <_Z20Read_DATA_SPI_ALTERAv>
     388:	89 93       	st	Y+, r24
     38a:	1f 5f       	subi	r17, 0xFF	; 255
     38c:	14 30       	cpi	r17, 0x04	; 4
     38e:	d9 f7       	brne	.-10     	; 0x386 <_Z13Read_ControlljPh+0x20>
 SET_ALTERA_CS1(1);                                                                          
     390:	ad 9a       	sbi	0x15, 5	; 21
}
     392:	df 91       	pop	r29
     394:	cf 91       	pop	r28
     396:	1f 91       	pop	r17
     398:	0f 91       	pop	r16
     39a:	08 95       	ret

0000039c <_Z10InitAlterav>:

void InitAltera()
{
	//PORTC=0x00;DDRC=0xff;DDRC.2=0;
	ALTERA_PORT = 0x00;
     39c:	15 ba       	out	0x15, r1	; 21
	ALTERA_OUT_DDR = 0xFF;
     39e:	8f ef       	ldi	r24, 0xFF	; 255
     3a0:	84 bb       	out	0x14, r24	; 20
	SET_LINE(ALTERA_OUT_DDR,2,0);
     3a2:	a2 98       	cbi	0x14, 2	; 20
	 SET_ALTERA_SCLK(0); SET_ALTERA_CS1(1);  SET_ALTERA_SDI(0);
     3a4:	a8 98       	cbi	0x15, 0	; 21
     3a6:	ad 9a       	sbi	0x15, 5	; 21
     3a8:	a9 98       	cbi	0x15, 1	; 21
	 DDRG=0xff;PORTG=0x00;
     3aa:	80 93 64 00 	sts	0x0064, r24
     3ae:	10 92 65 00 	sts	0x0065, r1
	ALTERA_OUT_DDR_2 = 0x01;
     3b2:	81 e0       	ldi	r24, 0x01	; 1
     3b4:	81 bb       	out	0x11, r24	; 17
	ALTERA_PORT_2 = 0x00;
     3b6:	12 ba       	out	0x12, r1	; 18
	SET_ALTERA_ENABLE(0);
     3b8:	ac 98       	cbi	0x15, 4	; 21
	SET_ALTERA_RESET(1);
     3ba:	90 9a       	sbi	0x12, 0	; 18
	#else
		//round up by default
		__ticks_dc = (uint32_t)(ceil(fabs(__tmp)));
	#endif

	__builtin_avr_delay_cycles(__ticks_dc);
     3bc:	2f ef       	ldi	r18, 0xFF	; 255
     3be:	8f ed       	ldi	r24, 0xDF	; 223
     3c0:	90 e1       	ldi	r25, 0x10	; 16
     3c2:	21 50       	subi	r18, 0x01	; 1
     3c4:	80 40       	sbci	r24, 0x00	; 0
     3c6:	90 40       	sbci	r25, 0x00	; 0
     3c8:	e1 f7       	brne	.-8      	; 0x3c2 <_Z10InitAlterav+0x26>
     3ca:	00 c0       	rjmp	.+0      	; 0x3cc <_Z10InitAlterav+0x30>
     3cc:	00 00       	nop
	delay_ms(500);
	DDRG=0xff;PORTG=0x00;
     3ce:	8f ef       	ldi	r24, 0xFF	; 255
     3d0:	80 93 64 00 	sts	0x0064, r24
     3d4:	10 92 65 00 	sts	0x0065, r1
     3d8:	8f ef       	ldi	r24, 0xFF	; 255
     3da:	95 e3       	ldi	r25, 0x35	; 53
     3dc:	01 97       	sbiw	r24, 0x01	; 1
     3de:	f1 f7       	brne	.-4      	; 0x3dc <_Z10InitAlterav+0x40>
     3e0:	00 c0       	rjmp	.+0      	; 0x3e2 <_Z10InitAlterav+0x46>
     3e2:	00 00       	nop
	delay_ms(5);PORTG=0x01;DDRG=0x00;delay_ms(500);
     3e4:	81 e0       	ldi	r24, 0x01	; 1
     3e6:	80 93 65 00 	sts	0x0065, r24
     3ea:	10 92 64 00 	sts	0x0064, r1
     3ee:	9f ef       	ldi	r25, 0xFF	; 255
     3f0:	2f ed       	ldi	r18, 0xDF	; 223
     3f2:	80 e1       	ldi	r24, 0x10	; 16
     3f4:	91 50       	subi	r25, 0x01	; 1
     3f6:	20 40       	sbci	r18, 0x00	; 0
     3f8:	80 40       	sbci	r24, 0x00	; 0
     3fa:	e1 f7       	brne	.-8      	; 0x3f4 <_Z10InitAlterav+0x58>
     3fc:	00 c0       	rjmp	.+0      	; 0x3fe <_Z10InitAlterav+0x62>
     3fe:	00 00       	nop
	
	while((PING&0x02)==0) {delay_ms(50);}
     400:	80 91 63 00 	lds	r24, 0x0063
     404:	81 fd       	sbrc	r24, 1
     406:	0e c0       	rjmp	.+28     	; 0x424 <_Z10InitAlterav+0x88>
     408:	e3 e6       	ldi	r30, 0x63	; 99
     40a:	f0 e0       	ldi	r31, 0x00	; 0
     40c:	9f ef       	ldi	r25, 0xFF	; 255
     40e:	2f ea       	ldi	r18, 0xAF	; 175
     410:	81 e0       	ldi	r24, 0x01	; 1
     412:	91 50       	subi	r25, 0x01	; 1
     414:	20 40       	sbci	r18, 0x00	; 0
     416:	80 40       	sbci	r24, 0x00	; 0
     418:	e1 f7       	brne	.-8      	; 0x412 <_Z10InitAlterav+0x76>
     41a:	00 c0       	rjmp	.+0      	; 0x41c <_Z10InitAlterav+0x80>
     41c:	00 00       	nop
     41e:	80 81       	ld	r24, Z
     420:	81 ff       	sbrs	r24, 1
     422:	f4 cf       	rjmp	.-24     	; 0x40c <_Z10InitAlterav+0x70>
     424:	9f ef       	ldi	r25, 0xFF	; 255
     426:	2f ea       	ldi	r18, 0xAF	; 175
     428:	81 e0       	ldi	r24, 0x01	; 1
     42a:	91 50       	subi	r25, 0x01	; 1
     42c:	20 40       	sbci	r18, 0x00	; 0
     42e:	80 40       	sbci	r24, 0x00	; 0
     430:	e1 f7       	brne	.-8      	; 0x42a <_Z10InitAlterav+0x8e>
     432:	00 c0       	rjmp	.+0      	; 0x434 <_Z10InitAlterav+0x98>
     434:	00 00       	nop
     436:	08 95       	ret

00000438 <_Z6IndOfFj>:
static const unsigned int Fr[NDIAP + 1]  ={150,300,600,1200,2400,3000};//граничные частоты диапазонов
static const unsigned int df[NDIAP + 1]  ={5,  10, 20,  40,  80, 100};//шаги частот в диапазонах
static const unsigned int N[NDIAP + 1]  = { 300,300, 300, 300,     75};//количество точек в диапазонах
//////////////////////////////////////////////////////////////////////////
unsigned int //возвращает позицию частоты во flash возможна ошибка в одну позиции по тому что не учитываются десятые и сотые доли
	IndOfF(unsigned int f){
     438:	0f 93       	push	r16
     43a:	1f 93       	push	r17
     43c:	cf 93       	push	r28
     43e:	df 93       	push	r29
     440:	8c 01       	movw	r16, r24
     442:	e1 e6       	ldi	r30, 0x61	; 97
     444:	f2 e0       	ldi	r31, 0x02	; 2
	unsigned int i = 0, Fc = 0, Nd = 0xFFFF, Npc = 0, Nf = 0;// Fc - частота без двух младших, Nd - номер диапазона, Npc - номер частоты в диапазоне, Nf - номер частоты во флешке
     446:	cf ef       	ldi	r28, 0xFF	; 255
     448:	df ef       	ldi	r29, 0xFF	; 255
	unsigned int Fcl = 0;// младшие разряды частоты для решения в какую сторону притягниваться
	Fc = f;//приводим частоту к виду Fr, частота в 10 кГц
	for(i = 0; i < NDIAP+1; i++){
     44a:	20 e0       	ldi	r18, 0x00	; 0
     44c:	30 e0       	ldi	r19, 0x00	; 0
		if (Fc > ((unsigned int)(Fr[i]))*10)//определяем в какой диапазон попала наша частота
     44e:	41 91       	ld	r20, Z+
     450:	51 91       	ld	r21, Z+
     452:	ba 01       	movw	r22, r20
     454:	66 0f       	add	r22, r22
     456:	77 1f       	adc	r23, r23
     458:	44 0f       	add	r20, r20
     45a:	55 1f       	adc	r21, r21
     45c:	44 0f       	add	r20, r20
     45e:	55 1f       	adc	r21, r21
     460:	44 0f       	add	r20, r20
     462:	55 1f       	adc	r21, r21
     464:	46 0f       	add	r20, r22
     466:	57 1f       	adc	r21, r23
     468:	40 17       	cp	r20, r16
     46a:	51 07       	cpc	r21, r17
     46c:	28 f4       	brcc	.+10     	; 0x478 <_Z6IndOfFj+0x40>
		if(i != NDIAP)  (Nd = i);
     46e:	25 30       	cpi	r18, 0x05	; 5
     470:	31 05       	cpc	r19, r1
     472:	09 f4       	brne	.+2      	; 0x476 <_Z6IndOfFj+0x3e>
     474:	6a c0       	rjmp	.+212    	; 0x54a <_Z6IndOfFj+0x112>
     476:	e9 01       	movw	r28, r18
unsigned int //возвращает позицию частоты во flash возможна ошибка в одну позиции по тому что не учитываются десятые и сотые доли
	IndOfF(unsigned int f){
	unsigned int i = 0, Fc = 0, Nd = 0xFFFF, Npc = 0, Nf = 0;// Fc - частота без двух младших, Nd - номер диапазона, Npc - номер частоты в диапазоне, Nf - номер частоты во флешке
	unsigned int Fcl = 0;// младшие разряды частоты для решения в какую сторону притягниваться
	Fc = f;//приводим частоту к виду Fr, частота в 10 кГц
	for(i = 0; i < NDIAP+1; i++){
     478:	2f 5f       	subi	r18, 0xFF	; 255
     47a:	3f 4f       	sbci	r19, 0xFF	; 255
     47c:	26 30       	cpi	r18, 0x06	; 6
     47e:	31 05       	cpc	r19, r1
     480:	31 f7       	brne	.-52     	; 0x44e <_Z6IndOfFj+0x16>
			for(i = 0; i < NDIAP+1; i++)
			maxInd +=  ((unsigned int)(N[i]));
			return maxInd;
		};//если частота выше самой верхней
	}
	if (Nd == 0xFFFF) return 0;//если частота ниже самой нижней граничной
     482:	cf 3f       	cpi	r28, 0xFF	; 255
     484:	8f ef       	ldi	r24, 0xFF	; 255
     486:	d8 07       	cpc	r29, r24
     488:	09 f4       	brne	.+2      	; 0x48c <_Z6IndOfFj+0x54>
     48a:	62 c0       	rjmp	.+196    	; 0x550 <_Z6IndOfFj+0x118>
	//SendCOMBytes((uchar*)&Nd,2);
	if(Fc > (unsigned int)(Fr[Nd])*10)
     48c:	fe 01       	movw	r30, r28
     48e:	ee 0f       	add	r30, r30
     490:	ff 1f       	adc	r31, r31
     492:	ef 59       	subi	r30, 0x9F	; 159
     494:	fd 4f       	sbci	r31, 0xFD	; 253
     496:	80 81       	ld	r24, Z
     498:	91 81       	ldd	r25, Z+1	; 0x01
     49a:	fc 01       	movw	r30, r24
     49c:	ee 0f       	add	r30, r30
     49e:	ff 1f       	adc	r31, r31
     4a0:	88 0f       	add	r24, r24
     4a2:	99 1f       	adc	r25, r25
     4a4:	88 0f       	add	r24, r24
     4a6:	99 1f       	adc	r25, r25
     4a8:	88 0f       	add	r24, r24
     4aa:	99 1f       	adc	r25, r25
     4ac:	e8 0f       	add	r30, r24
     4ae:	f9 1f       	adc	r31, r25
     4b0:	e0 17       	cp	r30, r16
     4b2:	f1 07       	cpc	r31, r17
     4b4:	68 f4       	brcc	.+26     	; 0x4d0 <_Z6IndOfFj+0x98>
	Npc = (Fc - (unsigned int)(Fr[Nd])*10)/(unsigned int)(df[Nd]);  //номер в поддиапазоне
     4b6:	de 01       	movw	r26, r28
     4b8:	aa 0f       	add	r26, r26
     4ba:	bb 1f       	adc	r27, r27
     4bc:	ab 5a       	subi	r26, 0xAB	; 171
     4be:	bd 4f       	sbci	r27, 0xFD	; 253
     4c0:	6d 91       	ld	r22, X+
     4c2:	7c 91       	ld	r23, X
     4c4:	c8 01       	movw	r24, r16
     4c6:	8e 1b       	sub	r24, r30
     4c8:	9f 0b       	sbc	r25, r31
     4ca:	0e 94 64 1d 	call	0x3ac8	; 0x3ac8 <__udivmodhi4>
     4ce:	02 c0       	rjmp	.+4      	; 0x4d4 <_Z6IndOfFj+0x9c>
static const unsigned int df[NDIAP + 1]  ={5,  10, 20,  40,  80, 100};//шаги частот в диапазонах
static const unsigned int N[NDIAP + 1]  = { 300,300, 300, 300,     75};//количество точек в диапазонах
//////////////////////////////////////////////////////////////////////////
unsigned int //возвращает позицию частоты во flash возможна ошибка в одну позиции по тому что не учитываются десятые и сотые доли
	IndOfF(unsigned int f){
	unsigned int i = 0, Fc = 0, Nd = 0xFFFF, Npc = 0, Nf = 0;// Fc - частота без двух младших, Nd - номер диапазона, Npc - номер частоты в диапазоне, Nf - номер частоты во флешке
     4d0:	60 e0       	ldi	r22, 0x00	; 0
     4d2:	70 e0       	ldi	r23, 0x00	; 0
	if (Nd == 0xFFFF) return 0;//если частота ниже самой нижней граничной
	//SendCOMBytes((uchar*)&Nd,2);
	if(Fc > (unsigned int)(Fr[Nd])*10)
	Npc = (Fc - (unsigned int)(Fr[Nd])*10)/(unsigned int)(df[Nd]);  //номер в поддиапазоне
	
	Fcl = f - (unsigned int)Npc*(unsigned int)(df[Nd]) - (unsigned int)(Fr[Nd])*10;// разница между получившейся частотой в поддиапазоне и исходной частотой
     4d4:	de 01       	movw	r26, r28
     4d6:	aa 0f       	add	r26, r26
     4d8:	bb 1f       	adc	r27, r27
     4da:	ab 5a       	subi	r26, 0xAB	; 171
     4dc:	bd 4f       	sbci	r27, 0xFD	; 253
     4de:	8d 91       	ld	r24, X+
     4e0:	9c 91       	ld	r25, X
     4e2:	68 9f       	mul	r22, r24
     4e4:	90 01       	movw	r18, r0
     4e6:	69 9f       	mul	r22, r25
     4e8:	30 0d       	add	r19, r0
     4ea:	78 9f       	mul	r23, r24
     4ec:	30 0d       	add	r19, r0
     4ee:	11 24       	eor	r1, r1
     4f0:	02 1b       	sub	r16, r18
     4f2:	13 0b       	sbc	r17, r19
     4f4:	0e 1b       	sub	r16, r30
     4f6:	1f 0b       	sbc	r17, r31

	for(i = 0; i < Nd; i++){// увеличиваем сдвиг от начала флешки на количество диапазонов
     4f8:	20 97       	sbiw	r28, 0x00	; 0
     4fa:	81 f0       	breq	.+32     	; 0x51c <_Z6IndOfFj+0xe4>
     4fc:	e9 e4       	ldi	r30, 0x49	; 73
     4fe:	f2 e0       	ldi	r31, 0x02	; 2
     500:	cc 0f       	add	r28, r28
     502:	dd 1f       	adc	r29, r29
     504:	c7 5b       	subi	r28, 0xB7	; 183
     506:	dd 4f       	sbci	r29, 0xFD	; 253
static const unsigned int df[NDIAP + 1]  ={5,  10, 20,  40,  80, 100};//шаги частот в диапазонах
static const unsigned int N[NDIAP + 1]  = { 300,300, 300, 300,     75};//количество точек в диапазонах
//////////////////////////////////////////////////////////////////////////
unsigned int //возвращает позицию частоты во flash возможна ошибка в одну позиции по тому что не учитываются десятые и сотые доли
	IndOfF(unsigned int f){
	unsigned int i = 0, Fc = 0, Nd = 0xFFFF, Npc = 0, Nf = 0;// Fc - частота без двух младших, Nd - номер диапазона, Npc - номер частоты в диапазоне, Nf - номер частоты во флешке
     508:	20 e0       	ldi	r18, 0x00	; 0
     50a:	30 e0       	ldi	r19, 0x00	; 0
	Npc = (Fc - (unsigned int)(Fr[Nd])*10)/(unsigned int)(df[Nd]);  //номер в поддиапазоне
	
	Fcl = f - (unsigned int)Npc*(unsigned int)(df[Nd]) - (unsigned int)(Fr[Nd])*10;// разница между получившейся частотой в поддиапазоне и исходной частотой

	for(i = 0; i < Nd; i++){// увеличиваем сдвиг от начала флешки на количество диапазонов
		Nf += (unsigned int)(N[i]);
     50c:	41 91       	ld	r20, Z+
     50e:	51 91       	ld	r21, Z+
     510:	24 0f       	add	r18, r20
     512:	35 1f       	adc	r19, r21
	if(Fc > (unsigned int)(Fr[Nd])*10)
	Npc = (Fc - (unsigned int)(Fr[Nd])*10)/(unsigned int)(df[Nd]);  //номер в поддиапазоне
	
	Fcl = f - (unsigned int)Npc*(unsigned int)(df[Nd]) - (unsigned int)(Fr[Nd])*10;// разница между получившейся частотой в поддиапазоне и исходной частотой

	for(i = 0; i < Nd; i++){// увеличиваем сдвиг от начала флешки на количество диапазонов
     514:	ec 17       	cp	r30, r28
     516:	fd 07       	cpc	r31, r29
     518:	c9 f7       	brne	.-14     	; 0x50c <_Z6IndOfFj+0xd4>
     51a:	02 c0       	rjmp	.+4      	; 0x520 <_Z6IndOfFj+0xe8>
static const unsigned int df[NDIAP + 1]  ={5,  10, 20,  40,  80, 100};//шаги частот в диапазонах
static const unsigned int N[NDIAP + 1]  = { 300,300, 300, 300,     75};//количество точек в диапазонах
//////////////////////////////////////////////////////////////////////////
unsigned int //возвращает позицию частоты во flash возможна ошибка в одну позиции по тому что не учитываются десятые и сотые доли
	IndOfF(unsigned int f){
	unsigned int i = 0, Fc = 0, Nd = 0xFFFF, Npc = 0, Nf = 0;// Fc - частота без двух младших, Nd - номер диапазона, Npc - номер частоты в диапазоне, Nf - номер частоты во флешке
     51c:	20 e0       	ldi	r18, 0x00	; 0
     51e:	30 e0       	ldi	r19, 0x00	; 0
	for(i = 0; i < Nd; i++){// увеличиваем сдвиг от начала флешки на количество диапазонов
		Nf += (unsigned int)(N[i]);

	}

	if (Fcl >= ((unsigned int)(df[Nd])/2))//Если больше или равно чем пол шага сетки то увеличиваем номер
     520:	96 95       	lsr	r25
     522:	87 95       	ror	r24
     524:	08 17       	cp	r16, r24
     526:	19 07       	cpc	r17, r25
     528:	28 f0       	brcs	.+10     	; 0x534 <_Z6IndOfFj+0xfc>
										// (Fcl >= ((unsigned int)(df[Nd])/2)) - вызывает перескок по частоте на шаге 5 кГц раньше чем нужно
	Nf = Npc + Nf + 1;
     52a:	6f 5f       	subi	r22, 0xFF	; 255
     52c:	7f 4f       	sbci	r23, 0xFF	; 255
     52e:	26 0f       	add	r18, r22
     530:	37 1f       	adc	r19, r23
     532:	02 c0       	rjmp	.+4      	; 0x538 <_Z6IndOfFj+0x100>
	else
	Nf = Npc + Nf;
     534:	26 0f       	add	r18, r22
     536:	37 1f       	adc	r19, r23
	
	//SendCOMBytes((uchar*)&Nf,2);
	return Nf*(unsigned int)DATASIZE;
     538:	c9 01       	movw	r24, r18
     53a:	88 0f       	add	r24, r24
     53c:	99 1f       	adc	r25, r25
     53e:	28 0f       	add	r18, r24
     540:	39 1f       	adc	r19, r25
     542:	c9 01       	movw	r24, r18
     544:	88 0f       	add	r24, r24
     546:	99 1f       	adc	r25, r25
     548:	05 c0       	rjmp	.+10     	; 0x554 <_Z6IndOfFj+0x11c>
		if (Fc > ((unsigned int)(Fr[i]))*10)//определяем в какой диапазон попала наша частота
		if(i != NDIAP)  (Nd = i);
		else {
			unsigned int maxInd = 0;
			for(i = 0; i < NDIAP+1; i++)
			maxInd +=  ((unsigned int)(N[i]));
     54a:	8b ef       	ldi	r24, 0xFB	; 251
     54c:	94 e0       	ldi	r25, 0x04	; 4
     54e:	02 c0       	rjmp	.+4      	; 0x554 <_Z6IndOfFj+0x11c>
			return maxInd;
		};//если частота выше самой верхней
	}
	if (Nd == 0xFFFF) return 0;//если частота ниже самой нижней граничной
     550:	80 e0       	ldi	r24, 0x00	; 0
     552:	90 e0       	ldi	r25, 0x00	; 0
	else
	Nf = Npc + Nf;
	
	//SendCOMBytes((uchar*)&Nf,2);
	return Nf*(unsigned int)DATASIZE;
}
     554:	df 91       	pop	r29
     556:	cf 91       	pop	r28
     558:	1f 91       	pop	r17
     55a:	0f 91       	pop	r16
     55c:	08 95       	ret

0000055e <_Z10CharFtoIndPh>:
//////////////////////////////////////////////////////////////////////////
const unsigned int ves[7] = {10000,1000,100,10,1,0,0};
unsigned int CharFtoInd(unsigned char* f){//зависит от длины частоты
     55e:	cf 93       	push	r28
     560:	dc 01       	movw	r26, r24
     562:	eb e3       	ldi	r30, 0x3B	; 59
     564:	f2 e0       	ldi	r31, 0x02	; 2
     566:	69 e4       	ldi	r22, 0x49	; 73
     568:	72 e0       	ldi	r23, 0x02	; 2
	unsigned int dF = 0;
     56a:	80 e0       	ldi	r24, 0x00	; 0
     56c:	90 e0       	ldi	r25, 0x00	; 0
	char i;
	for( i = 0; i < 7; i++){
		dF += ((unsigned int)(f[i] & 0x0F))*(ves[i]);
     56e:	cd 91       	ld	r28, X+
     570:	41 91       	ld	r20, Z+
     572:	51 91       	ld	r21, Z+
     574:	cf 70       	andi	r28, 0x0F	; 15
     576:	c4 9f       	mul	r28, r20
     578:	90 01       	movw	r18, r0
     57a:	c5 9f       	mul	r28, r21
     57c:	30 0d       	add	r19, r0
     57e:	11 24       	eor	r1, r1
     580:	82 0f       	add	r24, r18
     582:	93 1f       	adc	r25, r19
//////////////////////////////////////////////////////////////////////////
const unsigned int ves[7] = {10000,1000,100,10,1,0,0};
unsigned int CharFtoInd(unsigned char* f){//зависит от длины частоты
	unsigned int dF = 0;
	char i;
	for( i = 0; i < 7; i++){
     584:	e6 17       	cp	r30, r22
     586:	f7 07       	cpc	r31, r23
     588:	91 f7       	brne	.-28     	; 0x56e <_Z10CharFtoIndPh+0x10>
		dF += ((unsigned int)(f[i] & 0x0F))*(ves[i]);
	}
	return IndOfF(dF);
     58a:	56 df       	rcall	.-340    	; 0x438 <_Z6IndOfFj>
}
     58c:	cf 91       	pop	r28
     58e:	08 95       	ret

00000590 <_Z10ErrorFlashv>:

void ErrorFlash()
{
	LCD_Clear();
     590:	ed d1       	rcall	.+986    	; 0x96c <_Z9LCD_Clearv>
	LCD_DisplayStringRus(0,0,"   SEL FLASH ERROR  ");
     592:	46 e2       	ldi	r20, 0x26	; 38
     594:	52 e0       	ldi	r21, 0x02	; 2
     596:	60 e0       	ldi	r22, 0x00	; 0
     598:	80 e0       	ldi	r24, 0x00	; 0
     59a:	46 d2       	rcall	.+1164   	; 0xa28 <_Z20LCD_DisplayStringRusccPc>
     59c:	2f ef       	ldi	r18, 0xFF	; 255
     59e:	8f ed       	ldi	r24, 0xDF	; 223
     5a0:	90 e1       	ldi	r25, 0x10	; 16
     5a2:	21 50       	subi	r18, 0x01	; 1
     5a4:	80 40       	sbci	r24, 0x00	; 0
     5a6:	90 40       	sbci	r25, 0x00	; 0
     5a8:	e1 f7       	brne	.-8      	; 0x5a2 <_Z10ErrorFlashv+0x12>
     5aa:	00 c0       	rjmp	.+0      	; 0x5ac <_Z10ErrorFlashv+0x1c>
     5ac:	00 00       	nop
     5ae:	08 95       	ret

000005b0 <_Z18WriteData2FlashIICjPhh>:
 * Created: 19.09.2014 13:48:43
 *  Author: USER
 */ 
#include "flashiic.h"
//////////////////////////////////////////////////////////////////////////
void WriteData2FlashIIC(unsigned int startAddr,uchar *data,uchar numOfDataBytes){//запись в память n байт по адресу
     5b0:	ef 92       	push	r14
     5b2:	ff 92       	push	r15
     5b4:	0f 93       	push	r16
     5b6:	1f 93       	push	r17
     5b8:	cf 93       	push	r28
     5ba:	df 93       	push	r29
     5bc:	e4 2e       	mov	r14, r20
	////SendCOMBytes(&data[i],1);
	//}
	//IICStop();	//конец передачи
	char i=0;
	//реализация побайтной записи
	for ( i = 0; i < numOfDataBytes; i++)									//байты данных
     5be:	44 23       	and	r20, r20
     5c0:	39 f1       	breq	.+78     	; 0x610 <_Z18WriteData2FlashIICjPhh+0x60>
     5c2:	06 2f       	mov	r16, r22
     5c4:	17 2f       	mov	r17, r23
     5c6:	c8 2f       	mov	r28, r24
     5c8:	d9 2f       	mov	r29, r25
     5ca:	f1 2c       	mov	r15, r1
	{
		IICStart();
     5cc:	a2 d0       	rcall	.+324    	; 0x712 <_Z8IICStartv>
		if(IICByteWrite( (DEVICE_ADDR + WRITE) ) == 0x01)				//запись адреса устройства
     5ce:	80 ea       	ldi	r24, 0xA0	; 160
     5d0:	e6 d0       	rcall	.+460    	; 0x79e <_Z12IICByteWritec>
     5d2:	81 30       	cpi	r24, 0x01	; 1
     5d4:	09 f4       	brne	.+2      	; 0x5d8 <_Z18WriteData2FlashIICjPhh+0x28>
		ErrorFlash();
     5d6:	dc df       	rcall	.-72     	; 0x590 <_Z10ErrorFlashv>
		if(IICByteWrite( (uchar)(((startAddr+i)&0xFF00) >> 8)) == 0x01)		//старшая часть адреса ячейки
     5d8:	8d 2f       	mov	r24, r29
     5da:	e1 d0       	rcall	.+450    	; 0x79e <_Z12IICByteWritec>
     5dc:	81 30       	cpi	r24, 0x01	; 1
     5de:	09 f4       	brne	.+2      	; 0x5e2 <_Z18WriteData2FlashIICjPhh+0x32>
		ErrorFlash();
     5e0:	d7 df       	rcall	.-82     	; 0x590 <_Z10ErrorFlashv>
		if(IICByteWrite( (uchar)(((startAddr+i)&0x00FF))) == 0x01)			//младшая часть адреса ячейки
     5e2:	8c 2f       	mov	r24, r28
     5e4:	dc d0       	rcall	.+440    	; 0x79e <_Z12IICByteWritec>
     5e6:	81 30       	cpi	r24, 0x01	; 1
     5e8:	09 f4       	brne	.+2      	; 0x5ec <_Z18WriteData2FlashIICjPhh+0x3c>
		ErrorFlash();
     5ea:	d2 df       	rcall	.-92     	; 0x590 <_Z10ErrorFlashv>

		if(IICByteWrite( data[i] ) == 0x01)
     5ec:	f8 01       	movw	r30, r16
     5ee:	81 91       	ld	r24, Z+
     5f0:	8f 01       	movw	r16, r30
     5f2:	d5 d0       	rcall	.+426    	; 0x79e <_Z12IICByteWritec>
     5f4:	81 30       	cpi	r24, 0x01	; 1
     5f6:	09 f4       	brne	.+2      	; 0x5fa <_Z18WriteData2FlashIICjPhh+0x4a>
		ErrorFlash();
     5f8:	cb df       	rcall	.-106    	; 0x590 <_Z10ErrorFlashv>
		//SendCOMBytes(&data[i],1);
		
		IICStop();
     5fa:	9d d0       	rcall	.+314    	; 0x736 <_Z7IICStopv>
     5fc:	8f ef       	ldi	r24, 0xFF	; 255
     5fe:	95 e3       	ldi	r25, 0x35	; 53
     600:	01 97       	sbiw	r24, 0x01	; 1
     602:	f1 f7       	brne	.-4      	; 0x600 <_Z18WriteData2FlashIICjPhh+0x50>
     604:	00 c0       	rjmp	.+0      	; 0x606 <_Z18WriteData2FlashIICjPhh+0x56>
     606:	00 00       	nop
	////SendCOMBytes(&data[i],1);
	//}
	//IICStop();	//конец передачи
	char i=0;
	//реализация побайтной записи
	for ( i = 0; i < numOfDataBytes; i++)									//байты данных
     608:	f3 94       	inc	r15
     60a:	21 96       	adiw	r28, 0x01	; 1
     60c:	fe 10       	cpse	r15, r14
     60e:	de cf       	rjmp	.-68     	; 0x5cc <_Z18WriteData2FlashIICjPhh+0x1c>
		
		IICStop();
		_delay_ms(5);
	}
	
}
     610:	df 91       	pop	r29
     612:	cf 91       	pop	r28
     614:	1f 91       	pop	r17
     616:	0f 91       	pop	r16
     618:	ff 90       	pop	r15
     61a:	ef 90       	pop	r14
     61c:	08 95       	ret

0000061e <_Z17WriteLCAout2FlashjPh>:
}
//////////////////////////////////////////////////////////////////////////
void WriteLCAout2Flash(unsigned int addr,uchar *data){//обертка для записи данных из EEPROM контроллера во flash
	//	uchar temp_data[6];
	//	eeprom_read_block(temp_data,data,6);
	WriteData2FlashIIC(addr,data,DATASIZE);
     61e:	46 e0       	ldi	r20, 0x06	; 6
     620:	c7 cf       	rjmp	.-114    	; 0x5b0 <_Z18WriteData2FlashIICjPhh>
     622:	08 95       	ret

00000624 <_Z17WriteDetCal2FlashjPh>:
//////////////////////////////////////////////////////////////////////////
//Функция записи калибровочного коэффициента
void WriteDetCal2Flash( unsigned int addr,uchar* data )
{
	unsigned int shift_addr = addr + DETCAL_START_ADDR;
	WriteData2FlashIIC(shift_addr,data,1);
     624:	41 e0       	ldi	r20, 0x01	; 1
     626:	9a 95       	dec	r25
     628:	c3 cf       	rjmp	.-122    	; 0x5b0 <_Z18WriteData2FlashIICjPhh>
     62a:	08 95       	ret

0000062c <_Z18ReadDataInFlashIICPjPhh>:
}

//////////////////////////////////////////////////////////////////////////

void ReadDataInFlashIIC(unsigned int* startAddr,uchar *data,uchar numOfDataBytes)
{//используется произвольный доступ к памяти
     62c:	bf 92       	push	r11
     62e:	cf 92       	push	r12
     630:	df 92       	push	r13
     632:	ef 92       	push	r14
     634:	ff 92       	push	r15
     636:	0f 93       	push	r16
     638:	1f 93       	push	r17
     63a:	cf 93       	push	r28
     63c:	df 93       	push	r29
     63e:	ec 01       	movw	r28, r24
     640:	e6 2e       	mov	r14, r22
     642:	f7 2e       	mov	r15, r23
     644:	d4 2e       	mov	r13, r20
	char i=0;
	IICStart();
     646:	65 d0       	rcall	.+202    	; 0x712 <_Z8IICStartv>
	if(IICByteWrite( (DEVICE_ADDR + WRITE) ) == 0x01)				//запись адреса устройства
     648:	80 ea       	ldi	r24, 0xA0	; 160
     64a:	a9 d0       	rcall	.+338    	; 0x79e <_Z12IICByteWritec>
     64c:	11 e0       	ldi	r17, 0x01	; 1
     64e:	81 30       	cpi	r24, 0x01	; 1
     650:	09 f0       	breq	.+2      	; 0x654 <_Z18ReadDataInFlashIICPjPhh+0x28>
     652:	10 e0       	ldi	r17, 0x00	; 0
		i++;
	if(IICByteWrite( (uchar)((*startAddr&0xFF00) >> 8)) == 0x01)		//старшая часть адреса ячейки
     654:	89 81       	ldd	r24, Y+1	; 0x01
     656:	a3 d0       	rcall	.+326    	; 0x79e <_Z12IICByteWritec>
     658:	81 30       	cpi	r24, 0x01	; 1
     65a:	09 f4       	brne	.+2      	; 0x65e <_Z18ReadDataInFlashIICPjPhh+0x32>
		i++;
     65c:	1f 5f       	subi	r17, 0xFF	; 255
	if(IICByteWrite( (uchar)((*startAddr&0x00FF))) == 0x01)			//младшая часть адреса ячейки
     65e:	88 81       	ld	r24, Y
     660:	9e d0       	rcall	.+316    	; 0x79e <_Z12IICByteWritec>
     662:	81 30       	cpi	r24, 0x01	; 1
     664:	09 f4       	brne	.+2      	; 0x668 <_Z18ReadDataInFlashIICPjPhh+0x3c>
		i++;
     666:	1f 5f       	subi	r17, 0xFF	; 255
	IICStart();
     668:	54 d0       	rcall	.+168    	; 0x712 <_Z8IICStartv>
	if(IICByteWrite( (DEVICE_ADDR + READ) ) == 0x01)				//запись адреса устройства
     66a:	81 ea       	ldi	r24, 0xA1	; 161
     66c:	98 d0       	rcall	.+304    	; 0x79e <_Z12IICByteWritec>
     66e:	81 30       	cpi	r24, 0x01	; 1
     670:	09 f4       	brne	.+2      	; 0x674 <_Z18ReadDataInFlashIICPjPhh+0x48>
		i++;
     672:	1f 5f       	subi	r17, 0xFF	; 255
	if (i > 0) ErrorFlash();
     674:	11 11       	cpse	r17, r1
     676:	8c df       	rcall	.-232    	; 0x590 <_Z10ErrorFlashv>
	for ( i = 0; i < numOfDataBytes; i++)									//побайтное чтение из памяти. у предпоследнего символа нет ACK
     678:	dd 20       	and	r13, r13
     67a:	c1 f0       	breq	.+48     	; 0x6ac <_Z18ReadDataInFlashIICPjPhh+0x80>
     67c:	0e 2d       	mov	r16, r14
     67e:	1f 2d       	mov	r17, r15
     680:	c0 e0       	ldi	r28, 0x00	; 0
     682:	d0 e0       	ldi	r29, 0x00	; 0
	{
		data[i] = IICByteRead((uchar) (i == (numOfDataBytes - 1)));
     684:	ed 2c       	mov	r14, r13
     686:	f1 2c       	mov	r15, r1
     688:	81 e0       	ldi	r24, 0x01	; 1
     68a:	e8 1a       	sub	r14, r24
     68c:	f1 08       	sbc	r15, r1
     68e:	cc 24       	eor	r12, r12
     690:	c3 94       	inc	r12
     692:	b1 2c       	mov	r11, r1
     694:	8c 2d       	mov	r24, r12
     696:	ce 15       	cp	r28, r14
     698:	df 05       	cpc	r29, r15
     69a:	09 f0       	breq	.+2      	; 0x69e <_Z18ReadDataInFlashIICPjPhh+0x72>
     69c:	8b 2d       	mov	r24, r11
     69e:	88 d0       	rcall	.+272    	; 0x7b0 <_Z11IICByteReadc>
     6a0:	f8 01       	movw	r30, r16
     6a2:	81 93       	st	Z+, r24
     6a4:	8f 01       	movw	r16, r30
     6a6:	21 96       	adiw	r28, 0x01	; 1
		i++;
	IICStart();
	if(IICByteWrite( (DEVICE_ADDR + READ) ) == 0x01)				//запись адреса устройства
		i++;
	if (i > 0) ErrorFlash();
	for ( i = 0; i < numOfDataBytes; i++)									//побайтное чтение из памяти. у предпоследнего символа нет ACK
     6a8:	cd 15       	cp	r28, r13
     6aa:	a0 f3       	brcs	.-24     	; 0x694 <_Z18ReadDataInFlashIICPjPhh+0x68>
	{
		data[i] = IICByteRead((uchar) (i == (numOfDataBytes - 1)));
	//	uart_putchar(i);
	}
	//SendCOMBytes(data,6);
	IICStop();
     6ac:	44 d0       	rcall	.+136    	; 0x736 <_Z7IICStopv>
}
     6ae:	df 91       	pop	r29
     6b0:	cf 91       	pop	r28
     6b2:	1f 91       	pop	r17
     6b4:	0f 91       	pop	r16
     6b6:	ff 90       	pop	r15
     6b8:	ef 90       	pop	r14
     6ba:	df 90       	pop	r13
     6bc:	cf 90       	pop	r12
     6be:	bf 90       	pop	r11
     6c0:	08 95       	ret

000006c2 <_Z19ReadLCAoutFromFlashjPh>:
//////////////////////////////////////////////////////////////////////////
void ReadLCAoutFromFlash(unsigned int addr,uchar *data)
{//обертка для записи данных из EEPROM контроллера во flash
     6c2:	cf 93       	push	r28
     6c4:	df 93       	push	r29
     6c6:	00 d0       	rcall	.+0      	; 0x6c8 <_Z19ReadLCAoutFromFlashjPh+0x6>
     6c8:	cd b7       	in	r28, 0x3d	; 61
     6ca:	de b7       	in	r29, 0x3e	; 62
     6cc:	9a 83       	std	Y+2, r25	; 0x02
     6ce:	89 83       	std	Y+1, r24	; 0x01
	//uchar temp_data[DATASIZE];
	//uart_putchar('a');
	ReadDataInFlashIIC(&addr,data,DATASIZE);
     6d0:	46 e0       	ldi	r20, 0x06	; 6
     6d2:	ce 01       	movw	r24, r28
     6d4:	01 96       	adiw	r24, 0x01	; 1
     6d6:	aa df       	rcall	.-172    	; 0x62c <_Z18ReadDataInFlashIICPjPhh>
	//SendCOMBytes((uchar*)data,6);
	//eeprom_update_block(temp_data,data,DATASIZE);
	
}
     6d8:	0f 90       	pop	r0
     6da:	0f 90       	pop	r0
     6dc:	df 91       	pop	r29
     6de:	cf 91       	pop	r28
     6e0:	08 95       	ret

000006e2 <_Z17ReadDetCalInFlashjPh>:
	unsigned int shift_addr = addr + DETCAL_START_ADDR;
	WriteData2FlashIIC(shift_addr,data,1);
}
//Функция чтения калибровочного коэффициента
void ReadDetCalInFlash( unsigned int addr,uchar* data )
{
     6e2:	cf 93       	push	r28
     6e4:	df 93       	push	r29
     6e6:	00 d0       	rcall	.+0      	; 0x6e8 <_Z17ReadDetCalInFlashjPh+0x6>
     6e8:	cd b7       	in	r28, 0x3d	; 61
     6ea:	de b7       	in	r29, 0x3e	; 62
	unsigned int shift_addr = addr + DETCAL_START_ADDR;
     6ec:	9a 95       	dec	r25
     6ee:	9a 83       	std	Y+2, r25	; 0x02
     6f0:	89 83       	std	Y+1, r24	; 0x01
	ReadDataInFlashIIC(&shift_addr,data,1);
     6f2:	41 e0       	ldi	r20, 0x01	; 1
     6f4:	ce 01       	movw	r24, r28
     6f6:	01 96       	adiw	r24, 0x01	; 1
     6f8:	99 df       	rcall	.-206    	; 0x62c <_Z18ReadDataInFlashIICPjPhh>
}
     6fa:	0f 90       	pop	r0
     6fc:	0f 90       	pop	r0
     6fe:	df 91       	pop	r29
     700:	cf 91       	pop	r28
     702:	08 95       	ret

00000704 <_Z7IICInitv>:
 */ 
#include "i2c.h"
//ИНИЦИАЛИЗАЦИЯ ПОРТА ДЛЯ IIC

void IICInit(){
	IICPORT &= ~_BV(IICDataPin);
     704:	c3 98       	cbi	0x18, 3	; 24
	IICPORT &= ~_BV(IICCcPip);
     706:	c4 98       	cbi	0x18, 4	; 24
	IICDDR |= _BV(IICDataPin);
     708:	bb 9a       	sbi	0x17, 3	; 23
	IICDDR |= _BV(IICCcPip);
     70a:	bc 9a       	sbi	0x17, 4	; 23
	IICDDR &= ~_BV(IICDataPin);
     70c:	bb 98       	cbi	0x17, 3	; 23
	IICDDR &= ~_BV(IICCcPip);
     70e:	bc 98       	cbi	0x17, 4	; 23
     710:	08 95       	ret

00000712 <_Z8IICStartv>:
}

//ФУНКЦИЯ ФОРМИРОВАНИЯ СОСТОЯНИЯ START ПО ИНТЕРФЕЙСУ IIC
void IICStart (void)
{
	IICDDR &= ~(IICData | IICClc);
     712:	87 b3       	in	r24, 0x17	; 23
     714:	87 7e       	andi	r24, 0xE7	; 231
     716:	87 bb       	out	0x17, r24	; 23
	#else
		//round up by default
		__ticks_dc = (uint32_t)(ceil(fabs(__tmp)));
	#endif

	__builtin_avr_delay_cycles(__ticks_dc);
     718:	8b e0       	ldi	r24, 0x0B	; 11
     71a:	8a 95       	dec	r24
     71c:	f1 f7       	brne	.-4      	; 0x71a <_Z8IICStartv+0x8>
     71e:	00 00       	nop
	_delay_us (IICPause);
	IICDDR |= IICData;                            //подтяжка data к нулю
     720:	bb 9a       	sbi	0x17, 3	; 23
     722:	8b e0       	ldi	r24, 0x0B	; 11
     724:	8a 95       	dec	r24
     726:	f1 f7       	brne	.-4      	; 0x724 <_Z8IICStartv+0x12>
     728:	00 00       	nop
	_delay_us (IICPause);
	IICDDR |= IICClc;                            //подтяжка clc к нулю
     72a:	bc 9a       	sbi	0x17, 4	; 23
     72c:	8b e0       	ldi	r24, 0x0B	; 11
     72e:	8a 95       	dec	r24
     730:	f1 f7       	brne	.-4      	; 0x72e <_Z8IICStartv+0x1c>
     732:	00 00       	nop
     734:	08 95       	ret

00000736 <_Z7IICStopv>:


//ФУНКЦИЯ ФОРМИРОВАНИЯ СОСТОЯНИЯ STOP ПО ИНТЕРФЕЙСУ IIC
void IICStop (void)
{
	IICDDR |= (IICData | IICClc);
     736:	87 b3       	in	r24, 0x17	; 23
     738:	88 61       	ori	r24, 0x18	; 24
     73a:	87 bb       	out	0x17, r24	; 23
     73c:	8b e0       	ldi	r24, 0x0B	; 11
     73e:	8a 95       	dec	r24
     740:	f1 f7       	brne	.-4      	; 0x73e <_Z7IICStopv+0x8>
     742:	00 00       	nop
	_delay_us (IICPause);
	IICDDR &= ~IICClc;                            //подтяжка data к нулю
     744:	bc 98       	cbi	0x17, 4	; 23
     746:	8b e0       	ldi	r24, 0x0B	; 11
     748:	8a 95       	dec	r24
     74a:	f1 f7       	brne	.-4      	; 0x748 <_Z7IICStopv+0x12>
     74c:	00 00       	nop
	_delay_us (IICPause);
	IICDDR &= ~IICData;                            //подтяжка clc к нулю
     74e:	bb 98       	cbi	0x17, 3	; 23
     750:	8b e0       	ldi	r24, 0x0B	; 11
     752:	8a 95       	dec	r24
     754:	f1 f7       	brne	.-4      	; 0x752 <_Z7IICStopv+0x1c>
     756:	00 00       	nop
     758:	08 95       	ret

0000075a <_Z6IICBitc>:
//ФУНКЦИЯ ЗАПИСИ\ЧТЕНИЯ БИТА ПО ИНТЕРФЕЙСУ IIC
//выводится значение старшего бита аргумента
//принятый бит возвращается в младшем бите предварительно сдвинутого влево аргумента
char IICBit (char byte)
{char temp = 0;
	if (byte & 0x80)                        //выводимый бит
     75a:	88 23       	and	r24, r24
     75c:	14 f4       	brge	.+4      	; 0x762 <_Z6IICBitc+0x8>
	IICDDR &= ~IICData;                 //вывод 1 на линию данных
     75e:	bb 98       	cbi	0x17, 3	; 23
     760:	01 c0       	rjmp	.+2      	; 0x764 <_Z6IICBitc+0xa>
	else
	IICDDR |= IICData;                    //вывод 0 на линию данных
     762:	bb 9a       	sbi	0x17, 3	; 23
     764:	2b e0       	ldi	r18, 0x0B	; 11
     766:	2a 95       	dec	r18
     768:	f1 f7       	brne	.-4      	; 0x766 <_Z6IICBitc+0xc>
     76a:	00 00       	nop
	_delay_us (IICPause);
	IICDDR &= ~IICClc;                        //старт строб импульса
     76c:	bc 98       	cbi	0x17, 4	; 23
		
		while (! (IICPIN & IICClc)){//ожидание формирования строба
     76e:	b4 99       	sbic	0x16, 4	; 22
     770:	0a c0       	rjmp	.+20     	; 0x786 <_Z6IICBitc+0x2c>
     772:	9f ef       	ldi	r25, 0xFF	; 255
     774:	02 c0       	rjmp	.+4      	; 0x77a <_Z6IICBitc+0x20>
     776:	91 50       	subi	r25, 0x01	; 1
			temp++;				//пока ожидаем увеличиваем счетчик
			if (temp == 0)			//если прождали 255 пауз то прекращаем ждать
     778:	31 f0       	breq	.+12     	; 0x786 <_Z6IICBitc+0x2c>
     77a:	2b e0       	ldi	r18, 0x0B	; 11
     77c:	2a 95       	dec	r18
     77e:	f1 f7       	brne	.-4      	; 0x77c <_Z6IICBitc+0x22>
     780:	00 00       	nop
	else
	IICDDR |= IICData;                    //вывод 0 на линию данных
	_delay_us (IICPause);
	IICDDR &= ~IICClc;                        //старт строб импульса
		
		while (! (IICPIN & IICClc)){//ожидание формирования строба
     782:	b4 9b       	sbis	0x16, 4	; 22
     784:	f8 cf       	rjmp	.-16     	; 0x776 <_Z6IICBitc+0x1c>
     786:	9b e0       	ldi	r25, 0x0B	; 11
     788:	9a 95       	dec	r25
     78a:	f1 f7       	brne	.-4      	; 0x788 <_Z6IICBitc+0x2e>
     78c:	00 00       	nop
			break;
			_delay_us(IICPause);
		}
	_delay_us (IICPause);
	
	if (IICPIN & IICData)                    //принимаем бит
     78e:	96 b3       	in	r25, 0x16	; 22
	temp = 1;
	else
	temp = 0;
	IICDDR |= IICClc;                        //завершить строб
     790:	bc 9a       	sbi	0x17, 4	; 23
	byte <<= 1;
     792:	88 0f       	add	r24, r24
			break;
			_delay_us(IICPause);
		}
	_delay_us (IICPause);
	
	if (IICPIN & IICData)                    //принимаем бит
     794:	93 fb       	bst	r25, 3
     796:	99 27       	eor	r25, r25
     798:	90 f9       	bld	r25, 0
	temp = 0;
	IICDDR |= IICClc;                        //завершить строб
	byte <<= 1;
	byte |= temp;
	return byte;
}
     79a:	89 2b       	or	r24, r25
     79c:	08 95       	ret

0000079e <_Z12IICByteWritec>:

//ФУНКЦИЯ ЗАПИСИ БАЙТА ПО ИНТЕРФЕЙСУ IIC
//АРГУМЕНТ - байт данных для вывода по IIC
//ЗНАЧЕНИЕ - флаг подтверждения 0 (есть подтверждение) или 1 (нет подтверждения)
char IICByteWrite (char byte)
{
     79e:	cf 93       	push	r28
     7a0:	c8 e0       	ldi	r28, 0x08	; 8
	char i;
	for (i = 0; i<8; i++)
	byte = IICBit (byte);
     7a2:	db df       	rcall	.-74     	; 0x75a <_Z6IICBitc>
     7a4:	c1 50       	subi	r28, 0x01	; 1
//АРГУМЕНТ - байт данных для вывода по IIC
//ЗНАЧЕНИЕ - флаг подтверждения 0 (есть подтверждение) или 1 (нет подтверждения)
char IICByteWrite (char byte)
{
	char i;
	for (i = 0; i<8; i++)
     7a6:	e9 f7       	brne	.-6      	; 0x7a2 <_Z12IICByteWritec+0x4>
	byte = IICBit (byte);
	byte = 0x80;
	return IICBit (byte);                        //возвращаем бит подтверждения (0-есть бит подтверждения, 1-нет)
     7a8:	80 e8       	ldi	r24, 0x80	; 128
     7aa:	d7 df       	rcall	.-82     	; 0x75a <_Z6IICBitc>
}
     7ac:	cf 91       	pop	r28
     7ae:	08 95       	ret

000007b0 <_Z11IICByteReadc>:

//ФУНКЦИЯ ЧТЕНИЯ БАЙТА ПО ИНТЕРФЕЙСУ IIC
//АРГУМЕНТ - значение бита подтверждения (0 - есть подтверждение, 1 - нет подтверждения)
//ЗНАЧЕНИЕ - принятый байт
char IICByteRead(char on_bit)
{char i;
     7b0:	1f 93       	push	r17
     7b2:	cf 93       	push	r28
     7b4:	df 93       	push	r29
     7b6:	18 2f       	mov	r17, r24
     7b8:	c8 e0       	ldi	r28, 0x08	; 8
	char byte = 0xFF;
     7ba:	df ef       	ldi	r29, 0xFF	; 255
	for ( i = 0; i<8; i++)
	byte = IICBit (byte);
     7bc:	8d 2f       	mov	r24, r29
     7be:	cd df       	rcall	.-102    	; 0x75a <_Z6IICBitc>
     7c0:	d8 2f       	mov	r29, r24
     7c2:	c1 50       	subi	r28, 0x01	; 1
//АРГУМЕНТ - значение бита подтверждения (0 - есть подтверждение, 1 - нет подтверждения)
//ЗНАЧЕНИЕ - принятый байт
char IICByteRead(char on_bit)
{char i;
	char byte = 0xFF;
	for ( i = 0; i<8; i++)
     7c4:	d9 f7       	brne	.-10     	; 0x7bc <_Z11IICByteReadc+0xc>
	byte = IICBit (byte);
	on_bit <<= 7;
	IICBit (on_bit);                                //передать значение бита подтверждения
     7c6:	81 2f       	mov	r24, r17
     7c8:	87 95       	ror	r24
     7ca:	88 27       	eor	r24, r24
     7cc:	87 95       	ror	r24
     7ce:	c5 df       	rcall	.-118    	; 0x75a <_Z6IICBitc>
	return byte;                                //возвращаем принятый байт
}
     7d0:	8d 2f       	mov	r24, r29
     7d2:	df 91       	pop	r29
     7d4:	cf 91       	pop	r28
     7d6:	1f 91       	pop	r17
     7d8:	08 95       	ret

000007da <_Z12InitKeyboardv>:
}

void Blink(unsigned long t){
	KEY_PORT &= ~_BV(BLINK_PIN);
	while(t > 0){	_delay_us(1);t--;}
	KEY_PORT |= _BV(BLINK_PIN);
     7da:	e1 e6       	ldi	r30, 0x61	; 97
     7dc:	f0 e0       	ldi	r31, 0x00	; 0
     7de:	80 81       	ld	r24, Z
     7e0:	82 60       	ori	r24, 0x02	; 2
     7e2:	80 83       	st	Z, r24
     7e4:	80 81       	ld	r24, Z
     7e6:	81 60       	ori	r24, 0x01	; 1
     7e8:	80 83       	st	Z, r24
     7ea:	80 81       	ld	r24, Z
     7ec:	80 68       	ori	r24, 0x80	; 128
     7ee:	80 83       	st	Z, r24
     7f0:	e2 e6       	ldi	r30, 0x62	; 98
     7f2:	f0 e0       	ldi	r31, 0x00	; 0
     7f4:	10 82       	st	Z, r1
     7f6:	10 b8       	out	0x00, r1	; 0
     7f8:	80 81       	ld	r24, Z
     7fa:	80 68       	ori	r24, 0x80	; 128
     7fc:	80 83       	st	Z, r24
     7fe:	80 81       	ld	r24, Z
     800:	82 60       	ori	r24, 0x02	; 2
     802:	80 83       	st	Z, r24
     804:	08 95       	ret

00000806 <_Z12ScanKeyboardPFvhE>:
}

//void ScanKeyboard(unsigned char *previosBtn, void (*operation)(char)){
void ScanKeyboard( void (*operation)(unsigned char)){
     806:	cf 93       	push	r28
     808:	fc 01       	movw	r30, r24
	static unsigned char  previosBtn;
	unsigned char clickedBtn;
	switch (KEY_IN_PORT & ((1 << DU_IN_PIN) | (1 << EE_IN_PIN) | (1 << LR_IN_PIN)))//реакция на нажатие клавиш
     80a:	80 b1       	in	r24, 0x00	; 0
     80c:	8c 71       	andi	r24, 0x1C	; 28
     80e:	88 30       	cpi	r24, 0x08	; 8
     810:	29 f0       	breq	.+10     	; 0x81c <_Z12ScanKeyboardPFvhE+0x16>
     812:	80 31       	cpi	r24, 0x10	; 16
     814:	59 f0       	breq	.+22     	; 0x82c <_Z12ScanKeyboardPFvhE+0x26>
     816:	84 30       	cpi	r24, 0x04	; 4
     818:	91 f4       	brne	.+36     	; 0x83e <_Z12ScanKeyboardPFvhE+0x38>
     81a:	04 c0       	rjmp	.+8      	; 0x824 <_Z12ScanKeyboardPFvhE+0x1e>
	{
		case (1 << DU_IN_PIN):
		clickedBtn = DU_NUM + CLK_STAT;
     81c:	01 99       	sbic	0x00, 1	; 0
     81e:	21 c0       	rjmp	.+66     	; 0x862 <_Z12ScanKeyboardPFvhE+0x5c>
     820:	c3 e0       	ldi	r28, 0x03	; 3
     822:	24 c0       	rjmp	.+72     	; 0x86c <_Z12ScanKeyboardPFvhE+0x66>
		break;
		
		case (1 << EE_IN_PIN):
		clickedBtn = EE_NUM + CLK_STAT;
     824:	01 9b       	sbis	0x00, 1	; 0
     826:	1f c0       	rjmp	.+62     	; 0x866 <_Z12ScanKeyboardPFvhE+0x60>
     828:	c2 e0       	ldi	r28, 0x02	; 2
     82a:	20 c0       	rjmp	.+64     	; 0x86c <_Z12ScanKeyboardPFvhE+0x66>
		break;
		
		case (1 << LR_IN_PIN):
		clickedBtn = LR_NUM + CLK_STAT;
     82c:	01 9b       	sbis	0x00, 1	; 0
     82e:	1d c0       	rjmp	.+58     	; 0x86a <_Z12ScanKeyboardPFvhE+0x64>
     830:	c6 e0       	ldi	r28, 0x06	; 6
     832:	1c c0       	rjmp	.+56     	; 0x86c <_Z12ScanKeyboardPFvhE+0x66>

	if ((clickedBtn != NOP))//если была нажата клавиша
	{
		if (clickedBtn != previosBtn)
		{
			(*operation)(clickedBtn);
     834:	8c 2f       	mov	r24, r28
     836:	09 95       	icall
			previosBtn = clickedBtn;//запоминаем нажатую клавишу
     838:	c0 93 3a 03 	sts	0x033A, r28
     83c:	1b c0       	rjmp	.+54     	; 0x874 <_Z12ScanKeyboardPFvhE+0x6e>
		}
	}
	else
	{
		if(CLK_STAT) {KEY_PORT = (KEY_PORT&(~_BV(EDR_PIN)))|_BV(EUL_PIN);}//переключаем линии выбора клавиш
     83e:	01 9b       	sbis	0x00, 1	; 0
     840:	07 c0       	rjmp	.+14     	; 0x850 <_Z12ScanKeyboardPFvhE+0x4a>
     842:	e2 e6       	ldi	r30, 0x62	; 98
     844:	f0 e0       	ldi	r31, 0x00	; 0
     846:	80 81       	ld	r24, Z
     848:	8c 7f       	andi	r24, 0xFC	; 252
     84a:	81 60       	ori	r24, 0x01	; 1
     84c:	80 83       	st	Z, r24
     84e:	06 c0       	rjmp	.+12     	; 0x85c <_Z12ScanKeyboardPFvhE+0x56>
		else {KEY_PORT = (KEY_PORT|_BV(EDR_PIN))&(~_BV(EUL_PIN));}
     850:	e2 e6       	ldi	r30, 0x62	; 98
     852:	f0 e0       	ldi	r31, 0x00	; 0
     854:	80 81       	ld	r24, Z
     856:	8c 7f       	andi	r24, 0xFC	; 252
     858:	82 60       	ori	r24, 0x02	; 2
     85a:	80 83       	st	Z, r24
		previosBtn = NOP;
     85c:	10 92 3a 03 	sts	0x033A, r1
     860:	09 c0       	rjmp	.+18     	; 0x874 <_Z12ScanKeyboardPFvhE+0x6e>
	static unsigned char  previosBtn;
	unsigned char clickedBtn;
	switch (KEY_IN_PORT & ((1 << DU_IN_PIN) | (1 << EE_IN_PIN) | (1 << LR_IN_PIN)))//реакция на нажатие клавиш
	{
		case (1 << DU_IN_PIN):
		clickedBtn = DU_NUM + CLK_STAT;
     862:	c4 e0       	ldi	r28, 0x04	; 4
     864:	03 c0       	rjmp	.+6      	; 0x86c <_Z12ScanKeyboardPFvhE+0x66>
		break;
		
		case (1 << EE_IN_PIN):
		clickedBtn = EE_NUM + CLK_STAT;
     866:	c1 e0       	ldi	r28, 0x01	; 1
     868:	01 c0       	rjmp	.+2      	; 0x86c <_Z12ScanKeyboardPFvhE+0x66>
		break;
		
		case (1 << LR_IN_PIN):
		clickedBtn = LR_NUM + CLK_STAT;
     86a:	c5 e0       	ldi	r28, 0x05	; 5
	}
	

	if ((clickedBtn != NOP))//если была нажата клавиша
	{
		if (clickedBtn != previosBtn)
     86c:	80 91 3a 03 	lds	r24, 0x033A
     870:	c8 13       	cpse	r28, r24
     872:	e0 cf       	rjmp	.-64     	; 0x834 <_Z12ScanKeyboardPFvhE+0x2e>
	{
		if(CLK_STAT) {KEY_PORT = (KEY_PORT&(~_BV(EDR_PIN)))|_BV(EUL_PIN);}//переключаем линии выбора клавиш
		else {KEY_PORT = (KEY_PORT|_BV(EDR_PIN))&(~_BV(EUL_PIN));}
		previosBtn = NOP;
	}
     874:	cf 91       	pop	r28
     876:	08 95       	ret

00000878 <_Z8LCD_Busyv>:
// *** Turn On LCD *** //
// ******************* //

void LCD_Display_On (void)
{
	LCD_WriteControl(LCD_ON);
     878:	da 98       	cbi	0x1b, 2	; 27
     87a:	8f e0       	ldi	r24, 0x0F	; 15
     87c:	8a bb       	out	0x1a, r24	; 26
     87e:	d9 9a       	sbi	0x1b, 1	; 27
     880:	d8 98       	cbi	0x1b, 0	; 27
     882:	82 e1       	ldi	r24, 0x12	; 18
     884:	8a 95       	dec	r24
     886:	f1 f7       	brne	.-4      	; 0x884 <_Z8LCD_Busyv+0xc>
     888:	00 c0       	rjmp	.+0      	; 0x88a <_Z8LCD_Busyv+0x12>
     88a:	da 9a       	sbi	0x1b, 2	; 27
     88c:	9b e0       	ldi	r25, 0x0B	; 11
     88e:	9a 95       	dec	r25
     890:	f1 f7       	brne	.-4      	; 0x88e <_Z8LCD_Busyv+0x16>
     892:	00 00       	nop
     894:	89 b3       	in	r24, 0x19	; 25
     896:	9b e0       	ldi	r25, 0x0B	; 11
     898:	9a 95       	dec	r25
     89a:	f1 f7       	brne	.-4      	; 0x898 <_Z8LCD_Busyv+0x20>
     89c:	00 00       	nop
     89e:	da 98       	cbi	0x1b, 2	; 27
     8a0:	92 e1       	ldi	r25, 0x12	; 18
     8a2:	9a 95       	dec	r25
     8a4:	f1 f7       	brne	.-4      	; 0x8a2 <_Z8LCD_Busyv+0x2a>
     8a6:	00 c0       	rjmp	.+0      	; 0x8a8 <_Z8LCD_Busyv+0x30>
     8a8:	da 9a       	sbi	0x1b, 2	; 27
     8aa:	9b e0       	ldi	r25, 0x0B	; 11
     8ac:	9a 95       	dec	r25
     8ae:	f1 f7       	brne	.-4      	; 0x8ac <_Z8LCD_Busyv+0x34>
     8b0:	00 00       	nop
     8b2:	da 98       	cbi	0x1b, 2	; 27
     8b4:	9f ef       	ldi	r25, 0xFF	; 255
     8b6:	9a bb       	out	0x1a, r25	; 26
     8b8:	08 95       	ret

000008ba <_Z17LCD_Write4Controlh>:
     8ba:	cf 93       	push	r28
     8bc:	c8 2f       	mov	r28, r24
     8be:	dc df       	rcall	.-72     	; 0x878 <_Z8LCD_Busyv>
     8c0:	88 23       	and	r24, r24
     8c2:	ec f3       	brlt	.-6      	; 0x8be <_Z17LCD_Write4Controlh+0x4>
     8c4:	da 98       	cbi	0x1b, 2	; 27
     8c6:	8b b3       	in	r24, 0x1b	; 27
     8c8:	8f 70       	andi	r24, 0x0F	; 15
     8ca:	8b bb       	out	0x1b, r24	; 27
     8cc:	8b b3       	in	r24, 0x1b	; 27
     8ce:	c8 2b       	or	r28, r24
     8d0:	cb bb       	out	0x1b, r28	; 27
     8d2:	d9 98       	cbi	0x1b, 1	; 27
     8d4:	d8 98       	cbi	0x1b, 0	; 27
     8d6:	82 e1       	ldi	r24, 0x12	; 18
     8d8:	8a 95       	dec	r24
     8da:	f1 f7       	brne	.-4      	; 0x8d8 <_Z17LCD_Write4Controlh+0x1e>
     8dc:	00 c0       	rjmp	.+0      	; 0x8de <_Z17LCD_Write4Controlh+0x24>
     8de:	da 9a       	sbi	0x1b, 2	; 27
     8e0:	8b e0       	ldi	r24, 0x0B	; 11
     8e2:	8a 95       	dec	r24
     8e4:	f1 f7       	brne	.-4      	; 0x8e2 <_Z17LCD_Write4Controlh+0x28>
     8e6:	00 00       	nop
     8e8:	da 98       	cbi	0x1b, 2	; 27
     8ea:	82 e1       	ldi	r24, 0x12	; 18
     8ec:	8a 95       	dec	r24
     8ee:	f1 f7       	brne	.-4      	; 0x8ec <_Z17LCD_Write4Controlh+0x32>
     8f0:	00 c0       	rjmp	.+0      	; 0x8f2 <_Z17LCD_Write4Controlh+0x38>
     8f2:	8b b3       	in	r24, 0x1b	; 27
     8f4:	8f 70       	andi	r24, 0x0F	; 15
     8f6:	8b bb       	out	0x1b, r24	; 27
     8f8:	cf 91       	pop	r28
     8fa:	08 95       	ret

000008fc <_Z16LCD_WriteControlh>:
     8fc:	cf 93       	push	r28
     8fe:	c8 2f       	mov	r28, r24
     900:	80 7f       	andi	r24, 0xF0	; 240
     902:	db df       	rcall	.-74     	; 0x8ba <_Z17LCD_Write4Controlh>
     904:	8c 2f       	mov	r24, r28
     906:	82 95       	swap	r24
     908:	80 7f       	andi	r24, 0xF0	; 240
     90a:	d7 df       	rcall	.-82     	; 0x8ba <_Z17LCD_Write4Controlh>
     90c:	cf 91       	pop	r28
     90e:	08 95       	ret

00000910 <_Z14LCD_Write4Datah>:
     910:	cf 93       	push	r28
     912:	c8 2f       	mov	r28, r24
     914:	b1 df       	rcall	.-158    	; 0x878 <_Z8LCD_Busyv>
     916:	88 23       	and	r24, r24
     918:	ec f3       	brlt	.-6      	; 0x914 <_Z14LCD_Write4Datah+0x4>
     91a:	da 98       	cbi	0x1b, 2	; 27
     91c:	8b b3       	in	r24, 0x1b	; 27
     91e:	8f 70       	andi	r24, 0x0F	; 15
     920:	8b bb       	out	0x1b, r24	; 27
     922:	8b b3       	in	r24, 0x1b	; 27
     924:	c8 2b       	or	r28, r24
     926:	cb bb       	out	0x1b, r28	; 27
     928:	d9 98       	cbi	0x1b, 1	; 27
     92a:	d8 9a       	sbi	0x1b, 0	; 27
     92c:	82 e1       	ldi	r24, 0x12	; 18
     92e:	8a 95       	dec	r24
     930:	f1 f7       	brne	.-4      	; 0x92e <_Z14LCD_Write4Datah+0x1e>
     932:	00 c0       	rjmp	.+0      	; 0x934 <_Z14LCD_Write4Datah+0x24>
     934:	da 9a       	sbi	0x1b, 2	; 27
     936:	8b e0       	ldi	r24, 0x0B	; 11
     938:	8a 95       	dec	r24
     93a:	f1 f7       	brne	.-4      	; 0x938 <_Z14LCD_Write4Datah+0x28>
     93c:	00 00       	nop
     93e:	da 98       	cbi	0x1b, 2	; 27
     940:	82 e1       	ldi	r24, 0x12	; 18
     942:	8a 95       	dec	r24
     944:	f1 f7       	brne	.-4      	; 0x942 <_Z14LCD_Write4Datah+0x32>
     946:	00 c0       	rjmp	.+0      	; 0x948 <_Z14LCD_Write4Datah+0x38>
     948:	8b b3       	in	r24, 0x1b	; 27
     94a:	8f 70       	andi	r24, 0x0F	; 15
     94c:	8b bb       	out	0x1b, r24	; 27
     94e:	cf 91       	pop	r28
     950:	08 95       	ret

00000952 <_Z13LCD_WriteDatah>:
     952:	cf 93       	push	r28
     954:	c8 2f       	mov	r28, r24
     956:	80 7f       	andi	r24, 0xF0	; 240
     958:	db df       	rcall	.-74     	; 0x910 <_Z14LCD_Write4Datah>
     95a:	8c 2f       	mov	r24, r28
     95c:	82 95       	swap	r24
     95e:	80 7f       	andi	r24, 0xF0	; 240
     960:	d7 df       	rcall	.-82     	; 0x910 <_Z14LCD_Write4Datah>
     962:	8b b3       	in	r24, 0x1b	; 27
     964:	80 6f       	ori	r24, 0xF0	; 240
     966:	8b bb       	out	0x1b, r24	; 27
     968:	cf 91       	pop	r28
     96a:	08 95       	ret

0000096c <_Z9LCD_Clearv>:
     96c:	81 e0       	ldi	r24, 0x01	; 1
     96e:	c6 cf       	rjmp	.-116    	; 0x8fc <_Z16LCD_WriteControlh>
     970:	08 95       	ret

00000972 <_Z8Init_LCDv>:
     972:	8f ef       	ldi	r24, 0xFF	; 255
     974:	8a bb       	out	0x1a, r24	; 26
     976:	83 e0       	ldi	r24, 0x03	; 3
     978:	ef ef       	ldi	r30, 0xFF	; 255
     97a:	f1 ea       	ldi	r31, 0xA1	; 161
     97c:	31 97       	sbiw	r30, 0x01	; 1
     97e:	f1 f7       	brne	.-4      	; 0x97c <_Z8Init_LCDv+0xa>
     980:	00 c0       	rjmp	.+0      	; 0x982 <_Z8Init_LCDv+0x10>
     982:	00 00       	nop
     984:	da 98       	cbi	0x1b, 2	; 27
     986:	9b b3       	in	r25, 0x1b	; 27
     988:	9f 70       	andi	r25, 0x0F	; 15
     98a:	9b bb       	out	0x1b, r25	; 27
     98c:	9b b3       	in	r25, 0x1b	; 27
     98e:	90 63       	ori	r25, 0x30	; 48
     990:	9b bb       	out	0x1b, r25	; 27
     992:	d9 98       	cbi	0x1b, 1	; 27
     994:	d8 98       	cbi	0x1b, 0	; 27
     996:	f2 e1       	ldi	r31, 0x12	; 18
     998:	fa 95       	dec	r31
     99a:	f1 f7       	brne	.-4      	; 0x998 <_Z8Init_LCDv+0x26>
     99c:	00 c0       	rjmp	.+0      	; 0x99e <_Z8Init_LCDv+0x2c>
     99e:	da 9a       	sbi	0x1b, 2	; 27
     9a0:	9b e0       	ldi	r25, 0x0B	; 11
     9a2:	9a 95       	dec	r25
     9a4:	f1 f7       	brne	.-4      	; 0x9a2 <_Z8Init_LCDv+0x30>
     9a6:	00 00       	nop
     9a8:	da 98       	cbi	0x1b, 2	; 27
     9aa:	e2 e1       	ldi	r30, 0x12	; 18
     9ac:	ea 95       	dec	r30
     9ae:	f1 f7       	brne	.-4      	; 0x9ac <_Z8Init_LCDv+0x3a>
     9b0:	00 c0       	rjmp	.+0      	; 0x9b2 <_Z8Init_LCDv+0x40>
     9b2:	9b b3       	in	r25, 0x1b	; 27
     9b4:	9f 70       	andi	r25, 0x0F	; 15
     9b6:	9b bb       	out	0x1b, r25	; 27
     9b8:	81 50       	subi	r24, 0x01	; 1
     9ba:	f1 f6       	brne	.-68     	; 0x978 <_Z8Init_LCDv+0x6>
     9bc:	80 e2       	ldi	r24, 0x20	; 32
     9be:	7d df       	rcall	.-262    	; 0x8ba <_Z17LCD_Write4Controlh>
     9c0:	8c ec       	ldi	r24, 0xCC	; 204
     9c2:	9a e0       	ldi	r25, 0x0A	; 10
     9c4:	01 97       	sbiw	r24, 0x01	; 1
     9c6:	f1 f7       	brne	.-4      	; 0x9c4 <_Z8Init_LCDv+0x52>
     9c8:	00 c0       	rjmp	.+0      	; 0x9ca <_Z8Init_LCDv+0x58>
     9ca:	00 00       	nop
     9cc:	8f e2       	ldi	r24, 0x2F	; 47
     9ce:	96 df       	rcall	.-212    	; 0x8fc <_Z16LCD_WriteControlh>
     9d0:	cd df       	rcall	.-102    	; 0x96c <_Z9LCD_Clearv>
     9d2:	86 e0       	ldi	r24, 0x06	; 6
     9d4:	93 df       	rcall	.-218    	; 0x8fc <_Z16LCD_WriteControlh>
     9d6:	8e e0       	ldi	r24, 0x0E	; 14
     9d8:	91 cf       	rjmp	.-222    	; 0x8fc <_Z16LCD_WriteControlh>
     9da:	08 95       	ret

000009dc <_Z23LCD_DisplayCharacterRusc>:
     9dc:	80 3c       	cpi	r24, 0xC0	; 192
     9de:	38 f0       	brcs	.+14     	; 0x9ee <_Z23LCD_DisplayCharacterRusc+0x12>
     9e0:	e8 2f       	mov	r30, r24
     9e2:	f0 e0       	ldi	r31, 0x00	; 0
     9e4:	e4 53       	subi	r30, 0x34	; 52
     9e6:	f0 40       	sbci	r31, 0x00	; 0
     9e8:	84 91       	lpm	r24, Z
     9ea:	b3 cf       	rjmp	.-154    	; 0x952 <_Z13LCD_WriteDatah>
     9ec:	08 95       	ret
     9ee:	b1 cf       	rjmp	.-158    	; 0x952 <_Z13LCD_WriteDatah>
     9f0:	08 95       	ret

000009f2 <_Z10LCD_Cursorcc>:
     9f2:	82 30       	cpi	r24, 0x02	; 2
     9f4:	69 f0       	breq	.+26     	; 0xa10 <_Z10LCD_Cursorcc+0x1e>
     9f6:	18 f4       	brcc	.+6      	; 0x9fe <_Z10LCD_Cursorcc+0xc>
     9f8:	81 30       	cpi	r24, 0x01	; 1
     9fa:	31 f0       	breq	.+12     	; 0xa08 <_Z10LCD_Cursorcc+0x16>
     9fc:	08 95       	ret
     9fe:	83 30       	cpi	r24, 0x03	; 3
     a00:	59 f0       	breq	.+22     	; 0xa18 <_Z10LCD_Cursorcc+0x26>
     a02:	84 30       	cpi	r24, 0x04	; 4
     a04:	69 f0       	breq	.+26     	; 0xa20 <_Z10LCD_Cursorcc+0x2e>
     a06:	08 95       	ret
     a08:	8f e7       	ldi	r24, 0x7F	; 127
     a0a:	86 0f       	add	r24, r22
     a0c:	77 cf       	rjmp	.-274    	; 0x8fc <_Z16LCD_WriteControlh>
     a0e:	08 95       	ret
     a10:	8f eb       	ldi	r24, 0xBF	; 191
     a12:	86 0f       	add	r24, r22
     a14:	73 cf       	rjmp	.-282    	; 0x8fc <_Z16LCD_WriteControlh>
     a16:	08 95       	ret
     a18:	83 e9       	ldi	r24, 0x93	; 147
     a1a:	86 0f       	add	r24, r22
     a1c:	6f cf       	rjmp	.-290    	; 0x8fc <_Z16LCD_WriteControlh>
     a1e:	08 95       	ret
     a20:	83 ed       	ldi	r24, 0xD3	; 211
     a22:	86 0f       	add	r24, r22
     a24:	6b cf       	rjmp	.-298    	; 0x8fc <_Z16LCD_WriteControlh>
     a26:	08 95       	ret

00000a28 <_Z20LCD_DisplayStringRusccPc>:
     a28:	cf 93       	push	r28
     a2a:	df 93       	push	r29
     a2c:	ea 01       	movw	r28, r20
     a2e:	e1 df       	rcall	.-62     	; 0x9f2 <_Z10LCD_Cursorcc>
     a30:	88 81       	ld	r24, Y
     a32:	88 23       	and	r24, r24
     a34:	29 f0       	breq	.+10     	; 0xa40 <_Z20LCD_DisplayStringRusccPc+0x18>
     a36:	21 96       	adiw	r28, 0x01	; 1
     a38:	d1 df       	rcall	.-94     	; 0x9dc <_Z23LCD_DisplayCharacterRusc>
     a3a:	89 91       	ld	r24, Y+
     a3c:	81 11       	cpse	r24, r1
     a3e:	fc cf       	rjmp	.-8      	; 0xa38 <_Z20LCD_DisplayStringRusccPc+0x10>
     a40:	df 91       	pop	r29
     a42:	cf 91       	pop	r28
     a44:	08 95       	ret

00000a46 <_Z13LCD_Cursor_Onv>:
     a46:	8f e0       	ldi	r24, 0x0F	; 15
     a48:	59 cf       	rjmp	.-334    	; 0x8fc <_Z16LCD_WriteControlh>
     a4a:	08 95       	ret

00000a4c <_Z25LCD_DisplayDrawLongStringPc>:
// ************************************ //
// ***Вывод строки длиннее 20 символов* //
// ***строка выводится как две строки * //
// ************************************ //

void LCD_DisplayDrawLongString(char *string){
     a4c:	ff 92       	push	r15
     a4e:	0f 93       	push	r16
     a50:	1f 93       	push	r17
     a52:	cf 93       	push	r28
     a54:	df 93       	push	r29
     a56:	8c 01       	movw	r16, r24
	char i = 0;
	LCD_Cursor(1,1);
     a58:	61 e0       	ldi	r22, 0x01	; 1
     a5a:	81 e0       	ldi	r24, 0x01	; 1
     a5c:	ca df       	rcall	.-108    	; 0x9f2 <_Z10LCD_Cursorcc>
	while (*string)
     a5e:	f8 01       	movw	r30, r16
     a60:	80 81       	ld	r24, Z
     a62:	88 23       	and	r24, r24
     a64:	81 f0       	breq	.+32     	; 0xa86 <_Z25LCD_DisplayDrawLongStringPc+0x3a>
     a66:	f0 2e       	mov	r15, r16
     a68:	c0 2f       	mov	r28, r16
     a6a:	d1 2f       	mov	r29, r17
     a6c:	07 c0       	rjmp	.+14     	; 0xa7c <_Z25LCD_DisplayDrawLongStringPc+0x30>
     a6e:	8c 2f       	mov	r24, r28
     a70:	8f 19       	sub	r24, r15
	{
		if(i == NUM_OF_CHARS_PER_STR) LCD_Cursor(2,1);
     a72:	84 31       	cpi	r24, 0x14	; 20
     a74:	19 f4       	brne	.+6      	; 0xa7c <_Z25LCD_DisplayDrawLongStringPc+0x30>
     a76:	61 e0       	ldi	r22, 0x01	; 1
     a78:	82 e0       	ldi	r24, 0x02	; 2
     a7a:	bb df       	rcall	.-138    	; 0x9f2 <_Z10LCD_Cursorcc>
		LCD_DisplayCharacterRus (*string++);
     a7c:	89 91       	ld	r24, Y+
     a7e:	ae df       	rcall	.-164    	; 0x9dc <_Z23LCD_DisplayCharacterRusc>
// ************************************ //

void LCD_DisplayDrawLongString(char *string){
	char i = 0;
	LCD_Cursor(1,1);
	while (*string)
     a80:	88 81       	ld	r24, Y
     a82:	81 11       	cpse	r24, r1
     a84:	f4 cf       	rjmp	.-24     	; 0xa6e <_Z25LCD_DisplayDrawLongStringPc+0x22>
	{
		if(i == NUM_OF_CHARS_PER_STR) LCD_Cursor(2,1);
		LCD_DisplayCharacterRus (*string++);
		i++;
	}
}
     a86:	df 91       	pop	r29
     a88:	cf 91       	pop	r28
     a8a:	1f 91       	pop	r17
     a8c:	0f 91       	pop	r16
     a8e:	ff 90       	pop	r15
     a90:	08 95       	ret

00000a92 <_Z11noEventMenuP9CMenuItem>:
			SetZselOpen(val == 0);//TODO: отпирание запирание селектора захарова
		}		
		
}
//////////////////////////////////////////////////////////////////////////
void SetOTPLines(){
     a92:	08 95       	ret

00000a94 <_Z9KeySelecth>:
     a94:	83 30       	cpi	r24, 0x03	; 3
     a96:	21 f1       	breq	.+72     	; 0xae0 <_Z9KeySelecth+0x4c>
     a98:	28 f4       	brcc	.+10     	; 0xaa4 <_Z9KeySelecth+0x10>
     a9a:	81 30       	cpi	r24, 0x01	; 1
     a9c:	49 f0       	breq	.+18     	; 0xab0 <_Z9KeySelecth+0x1c>
     a9e:	82 30       	cpi	r24, 0x02	; 2
     aa0:	99 f0       	breq	.+38     	; 0xac8 <_Z9KeySelecth+0x34>
     aa2:	08 95       	ret
     aa4:	85 30       	cpi	r24, 0x05	; 5
     aa6:	a1 f1       	breq	.+104    	; 0xb10 <_Z9KeySelecth+0x7c>
     aa8:	38 f1       	brcs	.+78     	; 0xaf8 <_Z9KeySelecth+0x64>
     aaa:	86 30       	cpi	r24, 0x06	; 6
     aac:	e9 f1       	breq	.+122    	; 0xb28 <_Z9KeySelecth+0x94>
     aae:	08 95       	ret
     ab0:	80 91 29 05 	lds	r24, 0x0529
     ab4:	90 91 2a 05 	lds	r25, 0x052A
     ab8:	fc 01       	movw	r30, r24
     aba:	e2 5b       	subi	r30, 0xB2	; 178
     abc:	ff 4f       	sbci	r31, 0xFF	; 255
     abe:	01 90       	ld	r0, Z+
     ac0:	f0 81       	ld	r31, Z
     ac2:	e0 2d       	mov	r30, r0
     ac4:	09 95       	icall
     ac6:	08 95       	ret
     ac8:	80 91 29 05 	lds	r24, 0x0529
     acc:	90 91 2a 05 	lds	r25, 0x052A
     ad0:	fc 01       	movw	r30, r24
     ad2:	e4 5b       	subi	r30, 0xB4	; 180
     ad4:	ff 4f       	sbci	r31, 0xFF	; 255
     ad6:	01 90       	ld	r0, Z+
     ad8:	f0 81       	ld	r31, Z
     ada:	e0 2d       	mov	r30, r0
     adc:	09 95       	icall
     ade:	08 95       	ret
     ae0:	80 91 29 05 	lds	r24, 0x0529
     ae4:	90 91 2a 05 	lds	r25, 0x052A
     ae8:	fc 01       	movw	r30, r24
     aea:	ec 5a       	subi	r30, 0xAC	; 172
     aec:	ff 4f       	sbci	r31, 0xFF	; 255
     aee:	01 90       	ld	r0, Z+
     af0:	f0 81       	ld	r31, Z
     af2:	e0 2d       	mov	r30, r0
     af4:	09 95       	icall
     af6:	08 95       	ret
     af8:	80 91 29 05 	lds	r24, 0x0529
     afc:	90 91 2a 05 	lds	r25, 0x052A
     b00:	fc 01       	movw	r30, r24
     b02:	ea 5a       	subi	r30, 0xAA	; 170
     b04:	ff 4f       	sbci	r31, 0xFF	; 255
     b06:	01 90       	ld	r0, Z+
     b08:	f0 81       	ld	r31, Z
     b0a:	e0 2d       	mov	r30, r0
     b0c:	09 95       	icall
     b0e:	08 95       	ret
     b10:	80 91 29 05 	lds	r24, 0x0529
     b14:	90 91 2a 05 	lds	r25, 0x052A
     b18:	fc 01       	movw	r30, r24
     b1a:	e0 5b       	subi	r30, 0xB0	; 176
     b1c:	ff 4f       	sbci	r31, 0xFF	; 255
     b1e:	01 90       	ld	r0, Z+
     b20:	f0 81       	ld	r31, Z
     b22:	e0 2d       	mov	r30, r0
     b24:	09 95       	icall
     b26:	08 95       	ret
     b28:	80 91 29 05 	lds	r24, 0x0529
     b2c:	90 91 2a 05 	lds	r25, 0x052A
     b30:	fc 01       	movw	r30, r24
     b32:	ee 5a       	subi	r30, 0xAE	; 174
     b34:	ff 4f       	sbci	r31, 0xFF	; 255
     b36:	01 90       	ld	r0, Z+
     b38:	f0 81       	ld	r31, Z
     b3a:	e0 2d       	mov	r30, r0
     b3c:	09 95       	icall
     b3e:	08 95       	ret

00000b40 <_ZN9CMenuItem9initClassEPcS0_PS_PS1_cPFvS1_ES4_S4_S4_S4_S4_S4_cS0_cS0_>:
     b40:	2f 92       	push	r2
     b42:	3f 92       	push	r3
     b44:	4f 92       	push	r4
     b46:	5f 92       	push	r5
     b48:	6f 92       	push	r6
     b4a:	7f 92       	push	r7
     b4c:	8f 92       	push	r8
     b4e:	9f 92       	push	r9
     b50:	af 92       	push	r10
     b52:	bf 92       	push	r11
     b54:	cf 92       	push	r12
     b56:	df 92       	push	r13
     b58:	ef 92       	push	r14
     b5a:	ff 92       	push	r15
     b5c:	0f 93       	push	r16
     b5e:	1f 93       	push	r17
     b60:	cf 93       	push	r28
     b62:	df 93       	push	r29
     b64:	cd b7       	in	r28, 0x3d	; 61
     b66:	de b7       	in	r29, 0x3e	; 62
     b68:	fc 01       	movw	r30, r24
     b6a:	4d 88       	ldd	r4, Y+21	; 0x15
     b6c:	5e 88       	ldd	r5, Y+22	; 0x16
     b6e:	6f 88       	ldd	r6, Y+23	; 0x17
     b70:	78 8c       	ldd	r7, Y+24	; 0x18
     b72:	8b 8d       	ldd	r24, Y+27	; 0x1b
     b74:	9c 8d       	ldd	r25, Y+28	; 0x1c
     b76:	3d 8c       	ldd	r3, Y+29	; 0x1d
     b78:	f9 a0       	ldd	r15, Y+33	; 0x21
     b7a:	2a a0       	ldd	r2, Y+34	; 0x22
     b7c:	70 8f       	std	Z+24, r23	; 0x18
     b7e:	67 8b       	std	Z+23, r22	; 0x17
     b80:	52 8f       	std	Z+26, r21	; 0x1a
     b82:	41 8f       	std	Z+25, r20	; 0x19
     b84:	31 83       	std	Z+1, r19	; 0x01
     b86:	20 83       	st	Z, r18
     b88:	30 aa       	std	Z+48, r3	; 0x30
     b8a:	df 01       	movw	r26, r30
     b8c:	aa 5b       	subi	r26, 0xBA	; 186
     b8e:	bf 4f       	sbci	r27, 0xFF	; 255
     b90:	48 a1       	ldd	r20, Y+32	; 0x20
     b92:	4c 93       	st	X, r20
     b94:	13 96       	adiw	r26, 0x03	; 3
     b96:	41 e0       	ldi	r20, 0x01	; 1
     b98:	4c 93       	st	X, r20
     b9a:	11 97       	sbiw	r26, 0x01	; 1
     b9c:	1c 92       	st	X, r1
     b9e:	e6 8a       	std	Z+22, r14	; 0x16
     ba0:	ee 20       	and	r14, r14
     ba2:	89 f0       	breq	.+34     	; 0xbc6 <_ZN9CMenuItem9initClassEPcS0_PS_PS1_cPFvS1_ES4_S4_S4_S4_S4_S4_cS0_cS0_+0x86>
     ba4:	20 2f       	mov	r18, r16
     ba6:	31 2f       	mov	r19, r17
     ba8:	af 01       	movw	r20, r30
     baa:	4e 5f       	subi	r20, 0xFE	; 254
     bac:	5f 4f       	sbci	r21, 0xFF	; 255
     bae:	10 e0       	ldi	r17, 0x00	; 0
     bb0:	d9 01       	movw	r26, r18
     bb2:	6d 91       	ld	r22, X+
     bb4:	7d 91       	ld	r23, X+
     bb6:	9d 01       	movw	r18, r26
     bb8:	da 01       	movw	r26, r20
     bba:	6d 93       	st	X+, r22
     bbc:	7d 93       	st	X+, r23
     bbe:	ad 01       	movw	r20, r26
     bc0:	1f 5f       	subi	r17, 0xFF	; 255
     bc2:	1e 11       	cpse	r17, r14
     bc4:	f5 cf       	rjmp	.-22     	; 0xbb0 <_ZN9CMenuItem9initClassEPcS0_PS_PS1_cPFvS1_ES4_S4_S4_S4_S4_S4_cS0_cS0_+0x70>
     bc6:	31 10       	cpse	r3, r1
     bc8:	04 c0       	rjmp	.+8      	; 0xbd2 <_ZN9CMenuItem9initClassEPcS0_PS_PS1_cPFvS1_ES4_S4_S4_S4_S4_S4_cS0_cS0_+0x92>
     bca:	21 e0       	ldi	r18, 0x01	; 1
     bcc:	23 8f       	std	Z+27, r18	; 0x1b
     bce:	21 ab       	std	Z+49, r18	; 0x31
     bd0:	1f c0       	rjmp	.+62     	; 0xc10 <_ZN9CMenuItem9initClassEPcS0_PS_PS1_cPFvS1_ES4_S4_S4_S4_S4_S4_cS0_cS0_+0xd0>
     bd2:	2e 8d       	ldd	r18, Y+30	; 0x1e
     bd4:	3f 8d       	ldd	r19, Y+31	; 0x1f
     bd6:	af 01       	movw	r20, r30
     bd8:	45 5e       	subi	r20, 0xE5	; 229
     bda:	5f 4f       	sbci	r21, 0xFF	; 255
     bdc:	b9 01       	movw	r22, r18
     bde:	6f 5f       	subi	r22, 0xFF	; 255
     be0:	7f 4f       	sbci	r23, 0xFF	; 255
     be2:	3a 94       	dec	r3
     be4:	63 0d       	add	r22, r3
     be6:	71 1d       	adc	r23, r1
     be8:	d9 01       	movw	r26, r18
     bea:	1d 91       	ld	r17, X+
     bec:	9d 01       	movw	r18, r26
     bee:	da 01       	movw	r26, r20
     bf0:	1d 93       	st	X+, r17
     bf2:	ad 01       	movw	r20, r26
     bf4:	26 17       	cp	r18, r22
     bf6:	37 07       	cpc	r19, r23
     bf8:	b9 f7       	brne	.-18     	; 0xbe8 <_ZN9CMenuItem9initClassEPcS0_PS_PS1_cPFvS1_ES4_S4_S4_S4_S4_S4_cS0_cS0_+0xa8>
     bfa:	87 c0       	rjmp	.+270    	; 0xd0a <_ZN9CMenuItem9initClassEPcS0_PS_PS1_cPFvS1_ES4_S4_S4_S4_S4_S4_cS0_cS0_+0x1ca>
     bfc:	d9 01       	movw	r26, r18
     bfe:	6d 91       	ld	r22, X+
     c00:	9d 01       	movw	r18, r26
     c02:	da 01       	movw	r26, r20
     c04:	6d 93       	st	X+, r22
     c06:	ad 01       	movw	r20, r26
     c08:	62 2f       	mov	r22, r18
     c0a:	61 1b       	sub	r22, r17
     c0c:	67 17       	cp	r22, r23
     c0e:	b0 f3       	brcs	.-20     	; 0xbfc <_ZN9CMenuItem9initClassEPcS0_PS_PS1_cPFvS1_ES4_S4_S4_S4_S4_S4_cS0_cS0_+0xbc>
     c10:	c1 14       	cp	r12, r1
     c12:	d1 04       	cpc	r13, r1
     c14:	41 f4       	brne	.+16     	; 0xc26 <_ZN9CMenuItem9initClassEPcS0_PS_PS1_cPFvS1_ES4_S4_S4_S4_S4_S4_cS0_cS0_+0xe6>
     c16:	49 e4       	ldi	r20, 0x49	; 73
     c18:	55 e0       	ldi	r21, 0x05	; 5
     c1a:	df 01       	movw	r26, r30
     c1c:	a4 5b       	subi	r26, 0xB4	; 180
     c1e:	bf 4f       	sbci	r27, 0xFF	; 255
     c20:	4d 93       	st	X+, r20
     c22:	5c 93       	st	X, r21
     c24:	05 c0       	rjmp	.+10     	; 0xc30 <_ZN9CMenuItem9initClassEPcS0_PS_PS1_cPFvS1_ES4_S4_S4_S4_S4_S4_cS0_cS0_+0xf0>
     c26:	df 01       	movw	r26, r30
     c28:	a4 5b       	subi	r26, 0xB4	; 180
     c2a:	bf 4f       	sbci	r27, 0xFF	; 255
     c2c:	cd 92       	st	X+, r12
     c2e:	dc 92       	st	X, r13
     c30:	81 14       	cp	r8, r1
     c32:	91 04       	cpc	r9, r1
     c34:	41 f4       	brne	.+16     	; 0xc46 <_ZN9CMenuItem9initClassEPcS0_PS_PS1_cPFvS1_ES4_S4_S4_S4_S4_S4_cS0_cS0_+0x106>
     c36:	49 e4       	ldi	r20, 0x49	; 73
     c38:	55 e0       	ldi	r21, 0x05	; 5
     c3a:	df 01       	movw	r26, r30
     c3c:	a8 5a       	subi	r26, 0xA8	; 168
     c3e:	bf 4f       	sbci	r27, 0xFF	; 255
     c40:	4d 93       	st	X+, r20
     c42:	5c 93       	st	X, r21
     c44:	05 c0       	rjmp	.+10     	; 0xc50 <_ZN9CMenuItem9initClassEPcS0_PS_PS1_cPFvS1_ES4_S4_S4_S4_S4_S4_cS0_cS0_+0x110>
     c46:	df 01       	movw	r26, r30
     c48:	a8 5a       	subi	r26, 0xA8	; 168
     c4a:	bf 4f       	sbci	r27, 0xFF	; 255
     c4c:	8d 92       	st	X+, r8
     c4e:	9c 92       	st	X, r9
     c50:	a1 14       	cp	r10, r1
     c52:	b1 04       	cpc	r11, r1
     c54:	41 f4       	brne	.+16     	; 0xc66 <_ZN9CMenuItem9initClassEPcS0_PS_PS1_cPFvS1_ES4_S4_S4_S4_S4_S4_cS0_cS0_+0x126>
     c56:	49 e4       	ldi	r20, 0x49	; 73
     c58:	55 e0       	ldi	r21, 0x05	; 5
     c5a:	df 01       	movw	r26, r30
     c5c:	a2 5b       	subi	r26, 0xB2	; 178
     c5e:	bf 4f       	sbci	r27, 0xFF	; 255
     c60:	4d 93       	st	X+, r20
     c62:	5c 93       	st	X, r21
     c64:	05 c0       	rjmp	.+10     	; 0xc70 <_ZN9CMenuItem9initClassEPcS0_PS_PS1_cPFvS1_ES4_S4_S4_S4_S4_S4_cS0_cS0_+0x130>
     c66:	df 01       	movw	r26, r30
     c68:	a2 5b       	subi	r26, 0xB2	; 178
     c6a:	bf 4f       	sbci	r27, 0xFF	; 255
     c6c:	ad 92       	st	X+, r10
     c6e:	bc 92       	st	X, r11
     c70:	41 14       	cp	r4, r1
     c72:	51 04       	cpc	r5, r1
     c74:	41 f4       	brne	.+16     	; 0xc86 <_ZN9CMenuItem9initClassEPcS0_PS_PS1_cPFvS1_ES4_S4_S4_S4_S4_S4_cS0_cS0_+0x146>
     c76:	49 e4       	ldi	r20, 0x49	; 73
     c78:	55 e0       	ldi	r21, 0x05	; 5
     c7a:	df 01       	movw	r26, r30
     c7c:	a0 5b       	subi	r26, 0xB0	; 176
     c7e:	bf 4f       	sbci	r27, 0xFF	; 255
     c80:	4d 93       	st	X+, r20
     c82:	5c 93       	st	X, r21
     c84:	05 c0       	rjmp	.+10     	; 0xc90 <_ZN9CMenuItem9initClassEPcS0_PS_PS1_cPFvS1_ES4_S4_S4_S4_S4_S4_cS0_cS0_+0x150>
     c86:	df 01       	movw	r26, r30
     c88:	a0 5b       	subi	r26, 0xB0	; 176
     c8a:	bf 4f       	sbci	r27, 0xFF	; 255
     c8c:	4d 92       	st	X+, r4
     c8e:	5c 92       	st	X, r5
     c90:	61 14       	cp	r6, r1
     c92:	71 04       	cpc	r7, r1
     c94:	41 f4       	brne	.+16     	; 0xca6 <_ZN9CMenuItem9initClassEPcS0_PS_PS1_cPFvS1_ES4_S4_S4_S4_S4_S4_cS0_cS0_+0x166>
     c96:	49 e4       	ldi	r20, 0x49	; 73
     c98:	55 e0       	ldi	r21, 0x05	; 5
     c9a:	df 01       	movw	r26, r30
     c9c:	ae 5a       	subi	r26, 0xAE	; 174
     c9e:	bf 4f       	sbci	r27, 0xFF	; 255
     ca0:	4d 93       	st	X+, r20
     ca2:	5c 93       	st	X, r21
     ca4:	05 c0       	rjmp	.+10     	; 0xcb0 <_ZN9CMenuItem9initClassEPcS0_PS_PS1_cPFvS1_ES4_S4_S4_S4_S4_S4_cS0_cS0_+0x170>
     ca6:	df 01       	movw	r26, r30
     ca8:	ae 5a       	subi	r26, 0xAE	; 174
     caa:	bf 4f       	sbci	r27, 0xFF	; 255
     cac:	6d 92       	st	X+, r6
     cae:	7c 92       	st	X, r7
     cb0:	29 8d       	ldd	r18, Y+25	; 0x19
     cb2:	3a 8d       	ldd	r19, Y+26	; 0x1a
     cb4:	23 2b       	or	r18, r19
     cb6:	41 f4       	brne	.+16     	; 0xcc8 <_ZN9CMenuItem9initClassEPcS0_PS_PS1_cPFvS1_ES4_S4_S4_S4_S4_S4_cS0_cS0_+0x188>
     cb8:	29 e4       	ldi	r18, 0x49	; 73
     cba:	35 e0       	ldi	r19, 0x05	; 5
     cbc:	df 01       	movw	r26, r30
     cbe:	ac 5a       	subi	r26, 0xAC	; 172
     cc0:	bf 4f       	sbci	r27, 0xFF	; 255
     cc2:	2d 93       	st	X+, r18
     cc4:	3c 93       	st	X, r19
     cc6:	07 c0       	rjmp	.+14     	; 0xcd6 <_ZN9CMenuItem9initClassEPcS0_PS_PS1_cPFvS1_ES4_S4_S4_S4_S4_S4_cS0_cS0_+0x196>
     cc8:	df 01       	movw	r26, r30
     cca:	ac 5a       	subi	r26, 0xAC	; 172
     ccc:	bf 4f       	sbci	r27, 0xFF	; 255
     cce:	29 8d       	ldd	r18, Y+25	; 0x19
     cd0:	3a 8d       	ldd	r19, Y+26	; 0x1a
     cd2:	2d 93       	st	X+, r18
     cd4:	3c 93       	st	X, r19
     cd6:	00 97       	sbiw	r24, 0x00	; 0
     cd8:	41 f4       	brne	.+16     	; 0xcea <_ZN9CMenuItem9initClassEPcS0_PS_PS1_cPFvS1_ES4_S4_S4_S4_S4_S4_cS0_cS0_+0x1aa>
     cda:	89 e4       	ldi	r24, 0x49	; 73
     cdc:	95 e0       	ldi	r25, 0x05	; 5
     cde:	df 01       	movw	r26, r30
     ce0:	aa 5a       	subi	r26, 0xAA	; 170
     ce2:	bf 4f       	sbci	r27, 0xFF	; 255
     ce4:	8d 93       	st	X+, r24
     ce6:	9c 93       	st	X, r25
     ce8:	05 c0       	rjmp	.+10     	; 0xcf4 <_ZN9CMenuItem9initClassEPcS0_PS_PS1_cPFvS1_ES4_S4_S4_S4_S4_S4_cS0_cS0_+0x1b4>
     cea:	df 01       	movw	r26, r30
     cec:	aa 5a       	subi	r26, 0xAA	; 170
     cee:	bf 4f       	sbci	r27, 0xFF	; 255
     cf0:	8d 93       	st	X+, r24
     cf2:	9c 93       	st	X, r25
     cf4:	df 01       	movw	r26, r30
     cf6:	a6 5b       	subi	r26, 0xB6	; 182
     cf8:	bf 4f       	sbci	r27, 0xFF	; 255
     cfa:	80 a9       	ldd	r24, Z+48	; 0x30
     cfc:	8c 93       	st	X, r24
     cfe:	11 96       	adiw	r26, 0x01	; 1
     d00:	ea 5b       	subi	r30, 0xBA	; 186
     d02:	ff 4f       	sbci	r31, 0xFF	; 255
     d04:	80 81       	ld	r24, Z
     d06:	8c 93       	st	X, r24
     d08:	0e c0       	rjmp	.+28     	; 0xd26 <_ZN9CMenuItem9initClassEPcS0_PS_PS1_cPFvS1_ES4_S4_S4_S4_S4_S4_cS0_cS0_+0x1e6>
     d0a:	df 01       	movw	r26, r30
     d0c:	aa 5b       	subi	r26, 0xBA	; 186
     d0e:	bf 4f       	sbci	r27, 0xFF	; 255
     d10:	7c 91       	ld	r23, X
     d12:	77 23       	and	r23, r23
     d14:	09 f4       	brne	.+2      	; 0xd18 <_ZN9CMenuItem9initClassEPcS0_PS_PS1_cPFvS1_ES4_S4_S4_S4_S4_S4_cS0_cS0_+0x1d8>
     d16:	7c cf       	rjmp	.-264    	; 0xc10 <_ZN9CMenuItem9initClassEPcS0_PS_PS1_cPFvS1_ES4_S4_S4_S4_S4_S4_cS0_cS0_+0xd0>
     d18:	1f 2d       	mov	r17, r15
     d1a:	af 01       	movw	r20, r30
     d1c:	4f 5c       	subi	r20, 0xCF	; 207
     d1e:	5f 4f       	sbci	r21, 0xFF	; 255
     d20:	2f 2d       	mov	r18, r15
     d22:	32 2d       	mov	r19, r2
     d24:	6b cf       	rjmp	.-298    	; 0xbfc <_ZN9CMenuItem9initClassEPcS0_PS_PS1_cPFvS1_ES4_S4_S4_S4_S4_S4_cS0_cS0_+0xbc>
     d26:	df 91       	pop	r29
     d28:	cf 91       	pop	r28
     d2a:	1f 91       	pop	r17
     d2c:	0f 91       	pop	r16
     d2e:	ff 90       	pop	r15
     d30:	ef 90       	pop	r14
     d32:	df 90       	pop	r13
     d34:	cf 90       	pop	r12
     d36:	bf 90       	pop	r11
     d38:	af 90       	pop	r10
     d3a:	9f 90       	pop	r9
     d3c:	8f 90       	pop	r8
     d3e:	7f 90       	pop	r7
     d40:	6f 90       	pop	r6
     d42:	5f 90       	pop	r5
     d44:	4f 90       	pop	r4
     d46:	3f 90       	pop	r3
     d48:	2f 90       	pop	r2
     d4a:	08 95       	ret

00000d4c <_ZN9CMenuItemC1EPcS0_PS_10SChildListPFvS1_ES4_S4_S4_S4_S4_S4_18SPermitedPositionsS5_>:
     d4c:	8f 92       	push	r8
     d4e:	9f 92       	push	r9
     d50:	af 92       	push	r10
     d52:	bf 92       	push	r11
     d54:	cf 92       	push	r12
     d56:	df 92       	push	r13
     d58:	ef 92       	push	r14
     d5a:	ff 92       	push	r15
     d5c:	0f 93       	push	r16
     d5e:	1f 93       	push	r17
     d60:	cf 93       	push	r28
     d62:	df 93       	push	r29
     d64:	cd b7       	in	r28, 0x3d	; 61
     d66:	de b7       	in	r29, 0x3e	; 62
     d68:	aa a5       	ldd	r26, Y+42	; 0x2a
     d6a:	bb a5       	ldd	r27, Y+43	; 0x2b
     d6c:	1c a5       	ldd	r17, Y+44	; 0x2c
     d6e:	0d a5       	ldd	r16, Y+45	; 0x2d
     d70:	fe a4       	ldd	r15, Y+46	; 0x2e
     d72:	ef a4       	ldd	r14, Y+47	; 0x2f
     d74:	d8 a8       	ldd	r13, Y+48	; 0x30
     d76:	c9 a8       	ldd	r12, Y+49	; 0x31
     d78:	fe 01       	movw	r30, r28
     d7a:	e8 5b       	subi	r30, 0xB8	; 184
     d7c:	ff 4f       	sbci	r31, 0xFF	; 255
     d7e:	ff 93       	push	r31
     d80:	ef 93       	push	r30
     d82:	6e 96       	adiw	r28, 0x1e	; 30
     d84:	ef ad       	ldd	r30, Y+63	; 0x3f
     d86:	6e 97       	sbiw	r28, 0x1e	; 30
     d88:	ef 93       	push	r30
     d8a:	fe 01       	movw	r30, r28
     d8c:	f2 96       	adiw	r30, 0x32	; 50
     d8e:	ff 93       	push	r31
     d90:	ef 93       	push	r30
     d92:	28 96       	adiw	r28, 0x08	; 8
     d94:	ef ad       	ldd	r30, Y+63	; 0x3f
     d96:	28 97       	sbiw	r28, 0x08	; 8
     d98:	ef 93       	push	r30
     d9a:	cf 92       	push	r12
     d9c:	df 92       	push	r13
     d9e:	ef 92       	push	r14
     da0:	ff 92       	push	r15
     da2:	0f 93       	push	r16
     da4:	1f 93       	push	r17
     da6:	bf 93       	push	r27
     da8:	af 93       	push	r26
     daa:	88 a4       	ldd	r8, Y+40	; 0x28
     dac:	99 a4       	ldd	r9, Y+41	; 0x29
     dae:	ae a0       	ldd	r10, Y+38	; 0x26
     db0:	bf a0       	ldd	r11, Y+39	; 0x27
     db2:	cc a0       	ldd	r12, Y+36	; 0x24
     db4:	dd a0       	ldd	r13, Y+37	; 0x25
     db6:	eb a0       	ldd	r14, Y+35	; 0x23
     db8:	8e 01       	movw	r16, r28
     dba:	01 5f       	subi	r16, 0xF1	; 241
     dbc:	1f 4f       	sbci	r17, 0xFF	; 255
     dbe:	c0 de       	rcall	.-640    	; 0xb40 <_ZN9CMenuItem9initClassEPcS0_PS_PS1_cPFvS1_ES4_S4_S4_S4_S4_S4_cS0_cS0_>
     dc0:	0f b6       	in	r0, 0x3f	; 63
     dc2:	f8 94       	cli
     dc4:	de bf       	out	0x3e, r29	; 62
     dc6:	0f be       	out	0x3f, r0	; 63
     dc8:	cd bf       	out	0x3d, r28	; 61
     dca:	df 91       	pop	r29
     dcc:	cf 91       	pop	r28
     dce:	1f 91       	pop	r17
     dd0:	0f 91       	pop	r16
     dd2:	ff 90       	pop	r15
     dd4:	ef 90       	pop	r14
     dd6:	df 90       	pop	r13
     dd8:	cf 90       	pop	r12
     dda:	bf 90       	pop	r11
     ddc:	af 90       	pop	r10
     dde:	9f 90       	pop	r9
     de0:	8f 90       	pop	r8
     de2:	08 95       	ret

00000de4 <_Z41__static_initialization_and_destruction_0ii>:
     de4:	2f 92       	push	r2
     de6:	3f 92       	push	r3
     de8:	4f 92       	push	r4
     dea:	5f 92       	push	r5
     dec:	6f 92       	push	r6
     dee:	7f 92       	push	r7
     df0:	8f 92       	push	r8
     df2:	9f 92       	push	r9
     df4:	af 92       	push	r10
     df6:	bf 92       	push	r11
     df8:	cf 92       	push	r12
     dfa:	df 92       	push	r13
     dfc:	ef 92       	push	r14
     dfe:	ff 92       	push	r15
     e00:	0f 93       	push	r16
     e02:	1f 93       	push	r17
     e04:	cf 93       	push	r28
     e06:	df 93       	push	r29
     e08:	cd b7       	in	r28, 0x3d	; 61
     e0a:	de b7       	in	r29, 0x3e	; 62
     e0c:	c4 50       	subi	r28, 0x04	; 4
     e0e:	d1 40       	sbci	r29, 0x01	; 1
     e10:	0f b6       	in	r0, 0x3f	; 63
     e12:	f8 94       	cli
     e14:	de bf       	out	0x3e, r29	; 62
     e16:	0f be       	out	0x3f, r0	; 63
     e18:	cd bf       	out	0x3d, r28	; 61
     e1a:	01 97       	sbiw	r24, 0x01	; 1
     e1c:	09 f0       	breq	.+2      	; 0xe20 <_Z41__static_initialization_and_destruction_0ii+0x3c>
     e1e:	6c c2       	rjmp	.+1240   	; 0x12f8 <__stack+0x1f9>
     e20:	6f 3f       	cpi	r22, 0xFF	; 255
     e22:	7f 4f       	sbci	r23, 0xFF	; 255
     e24:	09 f0       	breq	.+2      	; 0xe28 <_Z41__static_initialization_and_destruction_0ii+0x44>
     e26:	68 c2       	rjmp	.+1232   	; 0x12f8 <__stack+0x1f9>
     e28:	fe 01       	movw	r30, r28
     e2a:	e1 51       	subi	r30, 0x11	; 17
     e2c:	ff 4f       	sbci	r31, 0xFF	; 255
     e2e:	0f 2e       	mov	r0, r31
     e30:	f6 e1       	ldi	r31, 0x16	; 22
     e32:	af 2e       	mov	r10, r31
     e34:	f0 2d       	mov	r31, r0
     e36:	df 01       	movw	r26, r30
     e38:	2a 2d       	mov	r18, r10
     e3a:	1d 92       	st	X+, r1
     e3c:	2a 95       	dec	r18
     e3e:	e9 f7       	brne	.-6      	; 0xe3a <_Z41__static_initialization_and_destruction_0ii+0x56>
     e40:	bb 24       	eor	r11, r11
     e42:	b3 94       	inc	r11
     e44:	b0 82       	st	Z, r11
     e46:	0f 2e       	mov	r0, r31
     e48:	f9 e0       	ldi	r31, 0x09	; 9
     e4a:	9f 2e       	mov	r9, r31
     e4c:	f0 2d       	mov	r31, r0
     e4e:	91 82       	std	Z+1, r9	; 0x01
     e50:	0f 2e       	mov	r0, r31
     e52:	fc e0       	ldi	r31, 0x0C	; 12
     e54:	3f 2e       	mov	r3, r31
     e56:	f0 2d       	mov	r31, r0
     e58:	32 82       	std	Z+2, r3	; 0x02
     e5a:	0f 2e       	mov	r0, r31
     e5c:	f2 e1       	ldi	r31, 0x12	; 18
     e5e:	4f 2e       	mov	r4, r31
     e60:	f0 2d       	mov	r31, r0
     e62:	43 82       	std	Z+3, r4	; 0x03
     e64:	68 94       	set
     e66:	55 24       	eor	r5, r5
     e68:	52 f8       	bld	r5, 2
     e6a:	55 8a       	std	Z+21, r5	; 0x15
     e6c:	ce 01       	movw	r24, r28
     e6e:	87 52       	subi	r24, 0x27	; 39
     e70:	9f 4f       	sbci	r25, 0xFF	; 255
     e72:	dc 01       	movw	r26, r24
     e74:	2a 2d       	mov	r18, r10
     e76:	1d 92       	st	X+, r1
     e78:	2a 95       	dec	r18
     e7a:	e9 f7       	brne	.-6      	; 0xe76 <_Z41__static_initialization_and_destruction_0ii+0x92>
     e7c:	23 e0       	ldi	r18, 0x03	; 3
     e7e:	dc 01       	movw	r26, r24
     e80:	2c 93       	st	X, r18
     e82:	11 96       	adiw	r26, 0x01	; 1
     e84:	5c 92       	st	X, r5
     e86:	11 97       	sbiw	r26, 0x01	; 1
     e88:	35 e0       	ldi	r19, 0x05	; 5
     e8a:	12 96       	adiw	r26, 0x02	; 2
     e8c:	3c 93       	st	X, r19
     e8e:	12 97       	sbiw	r26, 0x02	; 2
     e90:	46 e0       	ldi	r20, 0x06	; 6
     e92:	13 96       	adiw	r26, 0x03	; 3
     e94:	4c 93       	st	X, r20
     e96:	13 97       	sbiw	r26, 0x03	; 3
     e98:	57 e0       	ldi	r21, 0x07	; 7
     e9a:	14 96       	adiw	r26, 0x04	; 4
     e9c:	5c 93       	st	X, r21
     e9e:	14 97       	sbiw	r26, 0x04	; 4
     ea0:	15 96       	adiw	r26, 0x05	; 5
     ea2:	9c 92       	st	X, r9
     ea4:	15 97       	sbiw	r26, 0x05	; 5
     ea6:	0f 2e       	mov	r0, r31
     ea8:	fa e0       	ldi	r31, 0x0A	; 10
     eaa:	2f 2e       	mov	r2, r31
     eac:	f0 2d       	mov	r31, r0
     eae:	16 96       	adiw	r26, 0x06	; 6
     eb0:	2c 92       	st	X, r2
     eb2:	16 97       	sbiw	r26, 0x06	; 6
     eb4:	20 e1       	ldi	r18, 0x10	; 16
     eb6:	17 96       	adiw	r26, 0x07	; 7
     eb8:	2c 93       	st	X, r18
     eba:	17 97       	sbiw	r26, 0x07	; 7
     ebc:	68 94       	set
     ebe:	88 24       	eor	r8, r8
     ec0:	83 f8       	bld	r8, 3
     ec2:	55 96       	adiw	r26, 0x15	; 21
     ec4:	8c 92       	st	X, r8
     ec6:	9e 01       	movw	r18, r28
     ec8:	2c 53       	subi	r18, 0x3C	; 60
     eca:	3f 4f       	sbci	r19, 0xFF	; 255
     ecc:	0f 2e       	mov	r0, r31
     ece:	f5 e1       	ldi	r31, 0x15	; 21
     ed0:	7f 2e       	mov	r7, r31
     ed2:	f0 2d       	mov	r31, r0
     ed4:	d9 01       	movw	r26, r18
     ed6:	47 2d       	mov	r20, r7
     ed8:	1d 92       	st	X+, r1
     eda:	4a 95       	dec	r20
     edc:	e9 f7       	brne	.-6      	; 0xed8 <_Z41__static_initialization_and_destruction_0ii+0xf4>
     ede:	0f 2e       	mov	r0, r31
     ee0:	fc e5       	ldi	r31, 0x5C	; 92
     ee2:	cf 2e       	mov	r12, r31
     ee4:	f3 e0       	ldi	r31, 0x03	; 3
     ee6:	df 2e       	mov	r13, r31
     ee8:	f0 2d       	mov	r31, r0
     eea:	d9 01       	movw	r26, r18
     eec:	11 96       	adiw	r26, 0x01	; 1
     eee:	dc 92       	st	X, r13
     ef0:	ce 92       	st	-X, r12
     ef2:	54 96       	adiw	r26, 0x14	; 20
     ef4:	bc 92       	st	X, r11
     ef6:	4d b7       	in	r20, 0x3d	; 61
     ef8:	5e b7       	in	r21, 0x3e	; 62
     efa:	46 51       	subi	r20, 0x16	; 22
     efc:	51 09       	sbc	r21, r1
     efe:	0f b6       	in	r0, 0x3f	; 63
     f00:	f8 94       	cli
     f02:	5e bf       	out	0x3e, r21	; 62
     f04:	0f be       	out	0x3f, r0	; 63
     f06:	4d bf       	out	0x3d, r20	; 61
     f08:	ad b7       	in	r26, 0x3d	; 61
     f0a:	be b7       	in	r27, 0x3e	; 62
     f0c:	11 96       	adiw	r26, 0x01	; 1
     f0e:	46 e1       	ldi	r20, 0x16	; 22
     f10:	01 90       	ld	r0, Z+
     f12:	0d 92       	st	X+, r0
     f14:	4a 95       	dec	r20
     f16:	e1 f7       	brne	.-8      	; 0xf10 <_Z41__static_initialization_and_destruction_0ii+0x12c>
     f18:	ad b7       	in	r26, 0x3d	; 61
     f1a:	be b7       	in	r27, 0x3e	; 62
     f1c:	56 97       	sbiw	r26, 0x16	; 22
     f1e:	0f b6       	in	r0, 0x3f	; 63
     f20:	f8 94       	cli
     f22:	be bf       	out	0x3e, r27	; 62
     f24:	0f be       	out	0x3f, r0	; 63
     f26:	ad bf       	out	0x3d, r26	; 61
     f28:	11 96       	adiw	r26, 0x01	; 1
     f2a:	46 e1       	ldi	r20, 0x16	; 22
     f2c:	fc 01       	movw	r30, r24
     f2e:	01 90       	ld	r0, Z+
     f30:	0d 92       	st	X+, r0
     f32:	4a 95       	dec	r20
     f34:	e1 f7       	brne	.-8      	; 0xf2e <_Z41__static_initialization_and_destruction_0ii+0x14a>
     f36:	86 e0       	ldi	r24, 0x06	; 6
     f38:	9a e1       	ldi	r25, 0x1A	; 26
     f3a:	9f 93       	push	r25
     f3c:	8f 93       	push	r24
     f3e:	8b e8       	ldi	r24, 0x8B	; 139
     f40:	99 e1       	ldi	r25, 0x19	; 25
     f42:	9f 93       	push	r25
     f44:	8f 93       	push	r24
     f46:	0f 2e       	mov	r0, r31
     f48:	f4 e2       	ldi	r31, 0x24	; 36
     f4a:	ef 2e       	mov	r14, r31
     f4c:	fa e0       	ldi	r31, 0x0A	; 10
     f4e:	ff 2e       	mov	r15, r31
     f50:	f0 2d       	mov	r31, r0
     f52:	ff 92       	push	r15
     f54:	ef 92       	push	r14
     f56:	00 e7       	ldi	r16, 0x70	; 112
     f58:	1a e0       	ldi	r17, 0x0A	; 10
     f5a:	1f 93       	push	r17
     f5c:	0f 93       	push	r16
     f5e:	8b e1       	ldi	r24, 0x1B	; 27
     f60:	9e e0       	ldi	r25, 0x0E	; 14
     f62:	9f 93       	push	r25
     f64:	8f 93       	push	r24
     f66:	89 ea       	ldi	r24, 0xA9	; 169
     f68:	9a e0       	ldi	r25, 0x0A	; 10
     f6a:	9f 93       	push	r25
     f6c:	8f 93       	push	r24
     f6e:	8c e7       	ldi	r24, 0x7C	; 124
     f70:	98 e1       	ldi	r25, 0x18	; 24
     f72:	9f 93       	push	r25
     f74:	8f 93       	push	r24
     f76:	4d b7       	in	r20, 0x3d	; 61
     f78:	5e b7       	in	r21, 0x3e	; 62
     f7a:	45 51       	subi	r20, 0x15	; 21
     f7c:	51 09       	sbc	r21, r1
     f7e:	0f b6       	in	r0, 0x3f	; 63
     f80:	f8 94       	cli
     f82:	5e bf       	out	0x3e, r21	; 62
     f84:	0f be       	out	0x3f, r0	; 63
     f86:	4d bf       	out	0x3d, r20	; 61
     f88:	ad b7       	in	r26, 0x3d	; 61
     f8a:	be b7       	in	r27, 0x3e	; 62
     f8c:	11 96       	adiw	r26, 0x01	; 1
     f8e:	85 e1       	ldi	r24, 0x15	; 21
     f90:	f9 01       	movw	r30, r18
     f92:	01 90       	ld	r0, Z+
     f94:	0d 92       	st	X+, r0
     f96:	8a 95       	dec	r24
     f98:	e1 f7       	brne	.-8      	; 0xf92 <_Z41__static_initialization_and_destruction_0ii+0x1ae>
     f9a:	2b e6       	ldi	r18, 0x6B	; 107
     f9c:	34 e0       	ldi	r19, 0x04	; 4
     f9e:	42 e7       	ldi	r20, 0x72	; 114
     fa0:	52 e0       	ldi	r21, 0x02	; 2
     fa2:	66 e8       	ldi	r22, 0x86	; 134
     fa4:	72 e0       	ldi	r23, 0x02	; 2
     fa6:	c9 01       	movw	r24, r18
     fa8:	d1 de       	rcall	.-606    	; 0xd4c <_ZN9CMenuItemC1EPcS0_PS_10SChildListPFvS1_ES4_S4_S4_S4_S4_S4_18SPermitedPositionsS5_>
     faa:	fe 01       	movw	r30, r28
     fac:	e2 55       	subi	r30, 0x52	; 82
     fae:	ff 4f       	sbci	r31, 0xFF	; 255
     fb0:	df 01       	movw	r26, r30
     fb2:	2a 2d       	mov	r18, r10
     fb4:	1d 92       	st	X+, r1
     fb6:	2a 95       	dec	r18
     fb8:	e9 f7       	brne	.-6      	; 0xfb4 <_Z41__static_initialization_and_destruction_0ii+0x1d0>
     fba:	90 82       	st	Z, r9
     fbc:	21 82       	std	Z+1, r2	; 0x01
     fbe:	32 82       	std	Z+2, r3	; 0x02
     fc0:	2d e0       	ldi	r18, 0x0D	; 13
     fc2:	23 83       	std	Z+3, r18	; 0x03
     fc4:	3f e0       	ldi	r19, 0x0F	; 15
     fc6:	34 83       	std	Z+4, r19	; 0x04
     fc8:	40 e1       	ldi	r20, 0x10	; 16
     fca:	45 83       	std	Z+5, r20	; 0x05
     fcc:	46 82       	std	Z+6, r4	; 0x06
     fce:	0f 2e       	mov	r0, r31
     fd0:	f3 e1       	ldi	r31, 0x13	; 19
     fd2:	6f 2e       	mov	r6, r31
     fd4:	f0 2d       	mov	r31, r0
     fd6:	67 82       	std	Z+7, r6	; 0x07
     fd8:	85 8a       	std	Z+21, r8	; 0x15
     fda:	ce 01       	movw	r24, r28
     fdc:	88 56       	subi	r24, 0x68	; 104
     fde:	9f 4f       	sbci	r25, 0xFF	; 255
     fe0:	dc 01       	movw	r26, r24
     fe2:	3a 2d       	mov	r19, r10
     fe4:	1d 92       	st	X+, r1
     fe6:	3a 95       	dec	r19
     fe8:	e9 f7       	brne	.-6      	; 0xfe4 <_Z41__static_initialization_and_destruction_0ii+0x200>
     fea:	dc 01       	movw	r26, r24
     fec:	bc 92       	st	X, r11
     fee:	11 96       	adiw	r26, 0x01	; 1
     ff0:	9c 92       	st	X, r9
     ff2:	11 97       	sbiw	r26, 0x01	; 1
     ff4:	12 96       	adiw	r26, 0x02	; 2
     ff6:	2c 92       	st	X, r2
     ff8:	12 97       	sbiw	r26, 0x02	; 2
     ffa:	13 96       	adiw	r26, 0x03	; 3
     ffc:	3c 92       	st	X, r3
     ffe:	13 97       	sbiw	r26, 0x03	; 3
    1000:	14 96       	adiw	r26, 0x04	; 4
    1002:	2c 93       	st	X, r18
    1004:	14 97       	sbiw	r26, 0x04	; 4
    1006:	2f e0       	ldi	r18, 0x0F	; 15
    1008:	15 96       	adiw	r26, 0x05	; 5
    100a:	2c 93       	st	X, r18
    100c:	15 97       	sbiw	r26, 0x05	; 5
    100e:	16 96       	adiw	r26, 0x06	; 6
    1010:	4c 93       	st	X, r20
    1012:	16 97       	sbiw	r26, 0x06	; 6
    1014:	17 96       	adiw	r26, 0x07	; 7
    1016:	4c 92       	st	X, r4
    1018:	17 97       	sbiw	r26, 0x07	; 7
    101a:	18 96       	adiw	r26, 0x08	; 8
    101c:	6c 92       	st	X, r6
    101e:	18 97       	sbiw	r26, 0x08	; 8
    1020:	55 96       	adiw	r26, 0x15	; 21
    1022:	9c 92       	st	X, r9
    1024:	9e 01       	movw	r18, r28
    1026:	2d 57       	subi	r18, 0x7D	; 125
    1028:	3f 4f       	sbci	r19, 0xFF	; 255
    102a:	d9 01       	movw	r26, r18
    102c:	47 2d       	mov	r20, r7
    102e:	1d 92       	st	X+, r1
    1030:	4a 95       	dec	r20
    1032:	e9 f7       	brne	.-6      	; 0x102e <_Z41__static_initialization_and_destruction_0ii+0x24a>
    1034:	41 e1       	ldi	r20, 0x11	; 17
    1036:	54 e0       	ldi	r21, 0x04	; 4
    1038:	d9 01       	movw	r26, r18
    103a:	11 96       	adiw	r26, 0x01	; 1
    103c:	5c 93       	st	X, r21
    103e:	4e 93       	st	-X, r20
    1040:	54 96       	adiw	r26, 0x14	; 20
    1042:	bc 92       	st	X, r11
    1044:	0f b6       	in	r0, 0x3f	; 63
    1046:	f8 94       	cli
    1048:	de bf       	out	0x3e, r29	; 62
    104a:	0f be       	out	0x3f, r0	; 63
    104c:	cd bf       	out	0x3d, r28	; 61
    104e:	ad b7       	in	r26, 0x3d	; 61
    1050:	be b7       	in	r27, 0x3e	; 62
    1052:	56 97       	sbiw	r26, 0x16	; 22
    1054:	0f b6       	in	r0, 0x3f	; 63
    1056:	f8 94       	cli
    1058:	be bf       	out	0x3e, r27	; 62
    105a:	0f be       	out	0x3f, r0	; 63
    105c:	ad bf       	out	0x3d, r26	; 61
    105e:	11 96       	adiw	r26, 0x01	; 1
    1060:	46 e1       	ldi	r20, 0x16	; 22
    1062:	01 90       	ld	r0, Z+
    1064:	0d 92       	st	X+, r0
    1066:	4a 95       	dec	r20
    1068:	e1 f7       	brne	.-8      	; 0x1062 <_Z41__static_initialization_and_destruction_0ii+0x27e>
    106a:	4d b7       	in	r20, 0x3d	; 61
    106c:	5e b7       	in	r21, 0x3e	; 62
    106e:	46 51       	subi	r20, 0x16	; 22
    1070:	51 09       	sbc	r21, r1
    1072:	0f b6       	in	r0, 0x3f	; 63
    1074:	f8 94       	cli
    1076:	5e bf       	out	0x3e, r21	; 62
    1078:	0f be       	out	0x3f, r0	; 63
    107a:	4d bf       	out	0x3d, r20	; 61
    107c:	ad b7       	in	r26, 0x3d	; 61
    107e:	be b7       	in	r27, 0x3e	; 62
    1080:	11 96       	adiw	r26, 0x01	; 1
    1082:	46 e1       	ldi	r20, 0x16	; 22
    1084:	fc 01       	movw	r30, r24
    1086:	01 90       	ld	r0, Z+
    1088:	0d 92       	st	X+, r0
    108a:	4a 95       	dec	r20
    108c:	e1 f7       	brne	.-8      	; 0x1086 <_Z41__static_initialization_and_destruction_0ii+0x2a2>
    108e:	82 e7       	ldi	r24, 0x72	; 114
    1090:	9b e0       	ldi	r25, 0x0B	; 11
    1092:	9f 93       	push	r25
    1094:	8f 93       	push	r24
    1096:	8d e1       	ldi	r24, 0x1D	; 29
    1098:	9b e0       	ldi	r25, 0x0B	; 11
    109a:	9f 93       	push	r25
    109c:	8f 93       	push	r24
    109e:	ff 92       	push	r15
    10a0:	ef 92       	push	r14
    10a2:	1f 93       	push	r17
    10a4:	0f 93       	push	r16
    10a6:	83 ec       	ldi	r24, 0xC3	; 195
    10a8:	9e e0       	ldi	r25, 0x0E	; 14
    10aa:	9f 93       	push	r25
    10ac:	8f 93       	push	r24
    10ae:	84 ee       	ldi	r24, 0xE4	; 228
    10b0:	9a e0       	ldi	r25, 0x0A	; 10
    10b2:	9f 93       	push	r25
    10b4:	8f 93       	push	r24
    10b6:	8a ef       	ldi	r24, 0xFA	; 250
    10b8:	9b e0       	ldi	r25, 0x0B	; 11
    10ba:	9f 93       	push	r25
    10bc:	8f 93       	push	r24
    10be:	8d b7       	in	r24, 0x3d	; 61
    10c0:	9e b7       	in	r25, 0x3e	; 62
    10c2:	45 97       	sbiw	r24, 0x15	; 21
    10c4:	0f b6       	in	r0, 0x3f	; 63
    10c6:	f8 94       	cli
    10c8:	9e bf       	out	0x3e, r25	; 62
    10ca:	0f be       	out	0x3f, r0	; 63
    10cc:	8d bf       	out	0x3d, r24	; 61
    10ce:	ad b7       	in	r26, 0x3d	; 61
    10d0:	be b7       	in	r27, 0x3e	; 62
    10d2:	11 96       	adiw	r26, 0x01	; 1
    10d4:	85 e1       	ldi	r24, 0x15	; 21
    10d6:	f9 01       	movw	r30, r18
    10d8:	01 90       	ld	r0, Z+
    10da:	0d 92       	st	X+, r0
    10dc:	8a 95       	dec	r24
    10de:	e1 f7       	brne	.-8      	; 0x10d8 <_Z41__static_initialization_and_destruction_0ii+0x2f4>
    10e0:	2b e6       	ldi	r18, 0x6B	; 107
    10e2:	34 e0       	ldi	r19, 0x04	; 4
    10e4:	4b e9       	ldi	r20, 0x9B	; 155
    10e6:	52 e0       	ldi	r21, 0x02	; 2
    10e8:	60 eb       	ldi	r22, 0xB0	; 176
    10ea:	72 e0       	ldi	r23, 0x02	; 2
    10ec:	81 e1       	ldi	r24, 0x11	; 17
    10ee:	94 e0       	ldi	r25, 0x04	; 4
    10f0:	2d de       	rcall	.-934    	; 0xd4c <_ZN9CMenuItemC1EPcS0_PS_10SChildListPFvS1_ES4_S4_S4_S4_S4_S4_18SPermitedPositionsS5_>
    10f2:	fe 01       	movw	r30, r28
    10f4:	e3 59       	subi	r30, 0x93	; 147
    10f6:	ff 4f       	sbci	r31, 0xFF	; 255
    10f8:	df 01       	movw	r26, r30
    10fa:	2a 2d       	mov	r18, r10
    10fc:	1d 92       	st	X+, r1
    10fe:	2a 95       	dec	r18
    1100:	e9 f7       	brne	.-6      	; 0x10fc <_Z41__static_initialization_and_destruction_0ii+0x318>
    1102:	b0 82       	st	Z, r11
    1104:	9e 01       	movw	r18, r28
    1106:	29 5a       	subi	r18, 0xA9	; 169
    1108:	3f 4f       	sbci	r19, 0xFF	; 255
    110a:	d9 01       	movw	r26, r18
    110c:	4a 2d       	mov	r20, r10
    110e:	1d 92       	st	X+, r1
    1110:	4a 95       	dec	r20
    1112:	e9 f7       	brne	.-6      	; 0x110e <__stack+0xf>
    1114:	d9 01       	movw	r26, r18
    1116:	bc 92       	st	X, r11
    1118:	ce 01       	movw	r24, r28
    111a:	8e 5b       	subi	r24, 0xBE	; 190
    111c:	9f 4f       	sbci	r25, 0xFF	; 255
    111e:	dc 01       	movw	r26, r24
    1120:	47 2d       	mov	r20, r7
    1122:	1d 92       	st	X+, r1
    1124:	4a 95       	dec	r20
    1126:	e9 f7       	brne	.-6      	; 0x1122 <__stack+0x23>
    1128:	4b e6       	ldi	r20, 0x6B	; 107
    112a:	54 e0       	ldi	r21, 0x04	; 4
    112c:	dc 01       	movw	r26, r24
    112e:	11 96       	adiw	r26, 0x01	; 1
    1130:	5c 93       	st	X, r21
    1132:	4e 93       	st	-X, r20
    1134:	54 96       	adiw	r26, 0x14	; 20
    1136:	bc 92       	st	X, r11
    1138:	0f b6       	in	r0, 0x3f	; 63
    113a:	f8 94       	cli
    113c:	de bf       	out	0x3e, r29	; 62
    113e:	0f be       	out	0x3f, r0	; 63
    1140:	cd bf       	out	0x3d, r28	; 61
    1142:	ad b7       	in	r26, 0x3d	; 61
    1144:	be b7       	in	r27, 0x3e	; 62
    1146:	56 97       	sbiw	r26, 0x16	; 22
    1148:	0f b6       	in	r0, 0x3f	; 63
    114a:	f8 94       	cli
    114c:	be bf       	out	0x3e, r27	; 62
    114e:	0f be       	out	0x3f, r0	; 63
    1150:	ad bf       	out	0x3d, r26	; 61
    1152:	11 96       	adiw	r26, 0x01	; 1
    1154:	46 e1       	ldi	r20, 0x16	; 22
    1156:	01 90       	ld	r0, Z+
    1158:	0d 92       	st	X+, r0
    115a:	4a 95       	dec	r20
    115c:	e1 f7       	brne	.-8      	; 0x1156 <__stack+0x57>
    115e:	4d b7       	in	r20, 0x3d	; 61
    1160:	5e b7       	in	r21, 0x3e	; 62
    1162:	46 51       	subi	r20, 0x16	; 22
    1164:	51 09       	sbc	r21, r1
    1166:	0f b6       	in	r0, 0x3f	; 63
    1168:	f8 94       	cli
    116a:	5e bf       	out	0x3e, r21	; 62
    116c:	0f be       	out	0x3f, r0	; 63
    116e:	4d bf       	out	0x3d, r20	; 61
    1170:	ad b7       	in	r26, 0x3d	; 61
    1172:	be b7       	in	r27, 0x3e	; 62
    1174:	11 96       	adiw	r26, 0x01	; 1
    1176:	46 e1       	ldi	r20, 0x16	; 22
    1178:	f9 01       	movw	r30, r18
    117a:	01 90       	ld	r0, Z+
    117c:	0d 92       	st	X+, r0
    117e:	4a 95       	dec	r20
    1180:	e1 f7       	brne	.-8      	; 0x117a <__stack+0x7b>
    1182:	1f 92       	push	r1
    1184:	1f 92       	push	r1
    1186:	1f 92       	push	r1
    1188:	1f 92       	push	r1
    118a:	1f 92       	push	r1
    118c:	1f 92       	push	r1
    118e:	1f 92       	push	r1
    1190:	1f 92       	push	r1
    1192:	27 e0       	ldi	r18, 0x07	; 7
    1194:	32 e1       	ldi	r19, 0x12	; 18
    1196:	3f 93       	push	r19
    1198:	2f 93       	push	r18
    119a:	27 ec       	ldi	r18, 0xC7	; 199
    119c:	3b e0       	ldi	r19, 0x0B	; 11
    119e:	3f 93       	push	r19
    11a0:	2f 93       	push	r18
    11a2:	1f 92       	push	r1
    11a4:	1f 92       	push	r1
    11a6:	ad b7       	in	r26, 0x3d	; 61
    11a8:	be b7       	in	r27, 0x3e	; 62
    11aa:	55 97       	sbiw	r26, 0x15	; 21
    11ac:	0f b6       	in	r0, 0x3f	; 63
    11ae:	f8 94       	cli
    11b0:	be bf       	out	0x3e, r27	; 62
    11b2:	0f be       	out	0x3f, r0	; 63
    11b4:	ad bf       	out	0x3d, r26	; 61
    11b6:	11 96       	adiw	r26, 0x01	; 1
    11b8:	25 e1       	ldi	r18, 0x15	; 21
    11ba:	fc 01       	movw	r30, r24
    11bc:	01 90       	ld	r0, Z+
    11be:	0d 92       	st	X+, r0
    11c0:	2a 95       	dec	r18
    11c2:	e1 f7       	brne	.-8      	; 0x11bc <__stack+0xbd>
    11c4:	2b e6       	ldi	r18, 0x6B	; 107
    11c6:	34 e0       	ldi	r19, 0x04	; 4
    11c8:	45 ec       	ldi	r20, 0xC5	; 197
    11ca:	52 e0       	ldi	r21, 0x02	; 2
    11cc:	6a ed       	ldi	r22, 0xDA	; 218
    11ce:	72 e0       	ldi	r23, 0x02	; 2
    11d0:	86 eb       	ldi	r24, 0xB6	; 182
    11d2:	93 e0       	ldi	r25, 0x03	; 3
    11d4:	bb dd       	rcall	.-1162   	; 0xd4c <_ZN9CMenuItemC1EPcS0_PS_10SChildListPFvS1_ES4_S4_S4_S4_S4_S4_18SPermitedPositionsS5_>
    11d6:	fe 01       	movw	r30, r28
    11d8:	bc 96       	adiw	r30, 0x2c	; 44
    11da:	df 01       	movw	r26, r30
    11dc:	2a 2d       	mov	r18, r10
    11de:	1d 92       	st	X+, r1
    11e0:	2a 95       	dec	r18
    11e2:	e9 f7       	brne	.-6      	; 0x11de <__stack+0xdf>
    11e4:	5c a6       	std	Y+44, r5	; 0x2c
    11e6:	35 e0       	ldi	r19, 0x05	; 5
    11e8:	3d a7       	std	Y+45, r19	; 0x2d
    11ea:	46 e0       	ldi	r20, 0x06	; 6
    11ec:	4e a7       	std	Y+46, r20	; 0x2e
    11ee:	57 e0       	ldi	r21, 0x07	; 7
    11f0:	5f a7       	std	Y+47, r21	; 0x2f
    11f2:	88 aa       	std	Y+48, r8	; 0x30
    11f4:	81 e1       	ldi	r24, 0x11	; 17
    11f6:	89 ab       	std	Y+49, r24	; 0x31
    11f8:	4a aa       	std	Y+50, r4	; 0x32
    11fa:	6b aa       	std	Y+51, r6	; 0x33
    11fc:	84 e1       	ldi	r24, 0x14	; 20
    11fe:	8c ab       	std	Y+52, r24	; 0x34
    1200:	22 96       	adiw	r28, 0x02	; 2
    1202:	9f ae       	std	Y+63, r9	; 0x3f
    1204:	22 97       	sbiw	r28, 0x02	; 2
    1206:	9e 01       	movw	r18, r28
    1208:	2a 5e       	subi	r18, 0xEA	; 234
    120a:	3f 4f       	sbci	r19, 0xFF	; 255
    120c:	d9 01       	movw	r26, r18
    120e:	1d 92       	st	X+, r1
    1210:	aa 94       	dec	r10
    1212:	e9 f7       	brne	.-6      	; 0x120e <__stack+0x10f>
    1214:	b3 e0       	ldi	r27, 0x03	; 3
    1216:	be 8b       	std	Y+22, r27	; 0x16
    1218:	5f 8a       	std	Y+23, r5	; 0x17
    121a:	88 8e       	std	Y+24, r8	; 0x18
    121c:	99 8e       	std	Y+25, r9	; 0x19
    121e:	9e e0       	ldi	r25, 0x0E	; 14
    1220:	9a 8f       	std	Y+26, r25	; 0x1a
    1222:	4f e0       	ldi	r20, 0x0F	; 15
    1224:	4b 8f       	std	Y+27, r20	; 0x1b
    1226:	6c 8e       	std	Y+28, r6	; 0x1c
    1228:	8d 8f       	std	Y+29, r24	; 0x1d
    122a:	8b a6       	std	Y+43, r8	; 0x2b
    122c:	ce 01       	movw	r24, r28
    122e:	01 96       	adiw	r24, 0x01	; 1
    1230:	dc 01       	movw	r26, r24
    1232:	1d 92       	st	X+, r1
    1234:	7a 94       	dec	r7
    1236:	e9 f7       	brne	.-6      	; 0x1232 <__stack+0x133>
    1238:	da 82       	std	Y+2, r13	; 0x02
    123a:	c9 82       	std	Y+1, r12	; 0x01
    123c:	bd 8a       	std	Y+21, r11	; 0x15
    123e:	0f b6       	in	r0, 0x3f	; 63
    1240:	f8 94       	cli
    1242:	de bf       	out	0x3e, r29	; 62
    1244:	0f be       	out	0x3f, r0	; 63
    1246:	cd bf       	out	0x3d, r28	; 61
    1248:	ad b7       	in	r26, 0x3d	; 61
    124a:	be b7       	in	r27, 0x3e	; 62
    124c:	56 97       	sbiw	r26, 0x16	; 22
    124e:	0f b6       	in	r0, 0x3f	; 63
    1250:	f8 94       	cli
    1252:	be bf       	out	0x3e, r27	; 62
    1254:	0f be       	out	0x3f, r0	; 63
    1256:	ad bf       	out	0x3d, r26	; 61
    1258:	11 96       	adiw	r26, 0x01	; 1
    125a:	46 e1       	ldi	r20, 0x16	; 22
    125c:	01 90       	ld	r0, Z+
    125e:	0d 92       	st	X+, r0
    1260:	4a 95       	dec	r20
    1262:	e1 f7       	brne	.-8      	; 0x125c <__stack+0x15d>
    1264:	4d b7       	in	r20, 0x3d	; 61
    1266:	5e b7       	in	r21, 0x3e	; 62
    1268:	46 51       	subi	r20, 0x16	; 22
    126a:	51 09       	sbc	r21, r1
    126c:	0f b6       	in	r0, 0x3f	; 63
    126e:	f8 94       	cli
    1270:	5e bf       	out	0x3e, r21	; 62
    1272:	0f be       	out	0x3f, r0	; 63
    1274:	4d bf       	out	0x3d, r20	; 61
    1276:	ad b7       	in	r26, 0x3d	; 61
    1278:	be b7       	in	r27, 0x3e	; 62
    127a:	11 96       	adiw	r26, 0x01	; 1
    127c:	46 e1       	ldi	r20, 0x16	; 22
    127e:	f9 01       	movw	r30, r18
    1280:	01 90       	ld	r0, Z+
    1282:	0d 92       	st	X+, r0
    1284:	4a 95       	dec	r20
    1286:	e1 f7       	brne	.-8      	; 0x1280 <__stack+0x181>
    1288:	23 ef       	ldi	r18, 0xF3	; 243
    128a:	3c e0       	ldi	r19, 0x0C	; 12
    128c:	3f 93       	push	r19
    128e:	2f 93       	push	r18
    1290:	28 e1       	ldi	r18, 0x18	; 24
    1292:	3c e0       	ldi	r19, 0x0C	; 12
    1294:	3f 93       	push	r19
    1296:	2f 93       	push	r18
    1298:	29 e4       	ldi	r18, 0x49	; 73
    129a:	3a e0       	ldi	r19, 0x0A	; 10
    129c:	3f 93       	push	r19
    129e:	2f 93       	push	r18
    12a0:	22 e8       	ldi	r18, 0x82	; 130
    12a2:	3a e0       	ldi	r19, 0x0A	; 10
    12a4:	3f 93       	push	r19
    12a6:	2f 93       	push	r18
    12a8:	22 ea       	ldi	r18, 0xA2	; 162
    12aa:	3f e0       	ldi	r19, 0x0F	; 15
    12ac:	3f 93       	push	r19
    12ae:	2f 93       	push	r18
    12b0:	20 ed       	ldi	r18, 0xD0	; 208
    12b2:	3b e0       	ldi	r19, 0x0B	; 11
    12b4:	3f 93       	push	r19
    12b6:	2f 93       	push	r18
    12b8:	27 e8       	ldi	r18, 0x87	; 135
    12ba:	36 e1       	ldi	r19, 0x16	; 22
    12bc:	3f 93       	push	r19
    12be:	2f 93       	push	r18
    12c0:	ad b7       	in	r26, 0x3d	; 61
    12c2:	be b7       	in	r27, 0x3e	; 62
    12c4:	55 97       	sbiw	r26, 0x15	; 21
    12c6:	0f b6       	in	r0, 0x3f	; 63
    12c8:	f8 94       	cli
    12ca:	be bf       	out	0x3e, r27	; 62
    12cc:	0f be       	out	0x3f, r0	; 63
    12ce:	ad bf       	out	0x3d, r26	; 61
    12d0:	11 96       	adiw	r26, 0x01	; 1
    12d2:	25 e1       	ldi	r18, 0x15	; 21
    12d4:	fc 01       	movw	r30, r24
    12d6:	01 90       	ld	r0, Z+
    12d8:	0d 92       	st	X+, r0
    12da:	2a 95       	dec	r18
    12dc:	e1 f7       	brne	.-8      	; 0x12d6 <__stack+0x1d7>
    12de:	2b e6       	ldi	r18, 0x6B	; 107
    12e0:	34 e0       	ldi	r19, 0x04	; 4
    12e2:	4f ee       	ldi	r20, 0xEF	; 239
    12e4:	52 e0       	ldi	r21, 0x02	; 2
    12e6:	64 e0       	ldi	r22, 0x04	; 4
    12e8:	73 e0       	ldi	r23, 0x03	; 3
    12ea:	c6 01       	movw	r24, r12
    12ec:	2f dd       	rcall	.-1442   	; 0xd4c <_ZN9CMenuItemC1EPcS0_PS_10SChildListPFvS1_ES4_S4_S4_S4_S4_S4_18SPermitedPositionsS5_>
    12ee:	0f b6       	in	r0, 0x3f	; 63
    12f0:	f8 94       	cli
    12f2:	de bf       	out	0x3e, r29	; 62
    12f4:	0f be       	out	0x3f, r0	; 63
    12f6:	cd bf       	out	0x3d, r28	; 61
    12f8:	cc 5f       	subi	r28, 0xFC	; 252
    12fa:	de 4f       	sbci	r29, 0xFE	; 254
    12fc:	0f b6       	in	r0, 0x3f	; 63
    12fe:	f8 94       	cli
    1300:	de bf       	out	0x3e, r29	; 62
    1302:	0f be       	out	0x3f, r0	; 63
    1304:	cd bf       	out	0x3d, r28	; 61
    1306:	df 91       	pop	r29
    1308:	cf 91       	pop	r28
    130a:	1f 91       	pop	r17
    130c:	0f 91       	pop	r16
    130e:	ff 90       	pop	r15
    1310:	ef 90       	pop	r14
    1312:	df 90       	pop	r13
    1314:	cf 90       	pop	r12
    1316:	bf 90       	pop	r11
    1318:	af 90       	pop	r10
    131a:	9f 90       	pop	r9
    131c:	8f 90       	pop	r8
    131e:	7f 90       	pop	r7
    1320:	6f 90       	pop	r6
    1322:	5f 90       	pop	r5
    1324:	4f 90       	pop	r4
    1326:	3f 90       	pop	r3
    1328:	2f 90       	pop	r2
    132a:	08 95       	ret

0000132c <_ZN9CMenuItem8getChildEv>:
    132c:	fc 01       	movw	r30, r24
    132e:	e8 5b       	subi	r30, 0xB8	; 184
    1330:	ff 4f       	sbci	r31, 0xFF	; 255
    1332:	20 81       	ld	r18, Z
    1334:	fc 01       	movw	r30, r24
    1336:	36 89       	ldd	r19, Z+22	; 0x16
    1338:	23 17       	cp	r18, r19
    133a:	50 f4       	brcc	.+20     	; 0x1350 <_ZN9CMenuItem8getChildEv+0x24>
    133c:	30 e0       	ldi	r19, 0x00	; 0
    133e:	2f 5f       	subi	r18, 0xFF	; 255
    1340:	3f 4f       	sbci	r19, 0xFF	; 255
    1342:	22 0f       	add	r18, r18
    1344:	33 1f       	adc	r19, r19
    1346:	e2 0f       	add	r30, r18
    1348:	f3 1f       	adc	r31, r19
    134a:	80 81       	ld	r24, Z
    134c:	91 81       	ldd	r25, Z+1	; 0x01
    134e:	08 95       	ret
    1350:	fc 01       	movw	r30, r24
    1352:	82 81       	ldd	r24, Z+2	; 0x02
    1354:	93 81       	ldd	r25, Z+3	; 0x03
    1356:	08 95       	ret

00001358 <_ZN9CMenuItem17getCursorPositionEv>:
    1358:	fc 01       	movw	r30, r24
    135a:	e7 5b       	subi	r30, 0xB7	; 183
    135c:	ff 4f       	sbci	r31, 0xFF	; 255
    135e:	20 81       	ld	r18, Z
    1360:	21 30       	cpi	r18, 0x01	; 1
    1362:	39 f4       	brne	.+14     	; 0x1372 <_ZN9CMenuItem17getCursorPositionEv+0x1a>
    1364:	31 97       	sbiw	r30, 0x01	; 1
    1366:	30 81       	ld	r19, Z
    1368:	fc 01       	movw	r30, r24
    136a:	e3 0f       	add	r30, r19
    136c:	f1 1d       	adc	r31, r1
    136e:	33 8d       	ldd	r19, Z+27	; 0x1b
    1370:	0a c0       	rjmp	.+20     	; 0x1386 <_ZN9CMenuItem17getCursorPositionEv+0x2e>
    1372:	22 30       	cpi	r18, 0x02	; 2
    1374:	41 f4       	brne	.+16     	; 0x1386 <_ZN9CMenuItem17getCursorPositionEv+0x2e>
    1376:	fc 01       	movw	r30, r24
    1378:	e8 5b       	subi	r30, 0xB8	; 184
    137a:	ff 4f       	sbci	r31, 0xFF	; 255
    137c:	30 81       	ld	r19, Z
    137e:	fc 01       	movw	r30, r24
    1380:	e3 0f       	add	r30, r19
    1382:	f1 1d       	adc	r31, r1
    1384:	31 a9       	ldd	r19, Z+49	; 0x31
    1386:	82 2f       	mov	r24, r18
    1388:	93 2f       	mov	r25, r19
    138a:	08 95       	ret

0000138c <_ZN9CMenuItem10incrCurPosEv>:
    138c:	fc 01       	movw	r30, r24
    138e:	e8 5b       	subi	r30, 0xB8	; 184
    1390:	ff 4f       	sbci	r31, 0xFF	; 255
    1392:	60 81       	ld	r22, Z
    1394:	46 2f       	mov	r20, r22
    1396:	50 e0       	ldi	r21, 0x00	; 0
    1398:	31 96       	adiw	r30, 0x01	; 1
    139a:	20 81       	ld	r18, Z
    139c:	fc 01       	movw	r30, r24
    139e:	e2 0f       	add	r30, r18
    13a0:	f1 1d       	adc	r31, r1
    13a2:	e7 5b       	subi	r30, 0xB7	; 183
    13a4:	ff 4f       	sbci	r31, 0xFF	; 255
    13a6:	20 81       	ld	r18, Z
    13a8:	30 e0       	ldi	r19, 0x00	; 0
    13aa:	21 50       	subi	r18, 0x01	; 1
    13ac:	31 09       	sbc	r19, r1
    13ae:	42 17       	cp	r20, r18
    13b0:	53 07       	cpc	r21, r19
    13b2:	29 f4       	brne	.+10     	; 0x13be <_ZN9CMenuItem10incrCurPosEv+0x32>
    13b4:	fc 01       	movw	r30, r24
    13b6:	e8 5b       	subi	r30, 0xB8	; 184
    13b8:	ff 4f       	sbci	r31, 0xFF	; 255
    13ba:	10 82       	st	Z, r1
    13bc:	08 95       	ret
    13be:	fc 01       	movw	r30, r24
    13c0:	e8 5b       	subi	r30, 0xB8	; 184
    13c2:	ff 4f       	sbci	r31, 0xFF	; 255
    13c4:	6f 5f       	subi	r22, 0xFF	; 255
    13c6:	60 83       	st	Z, r22
    13c8:	08 95       	ret

000013ca <_ZN9CMenuItem10decrCurPosEv>:
    13ca:	fc 01       	movw	r30, r24
    13cc:	e8 5b       	subi	r30, 0xB8	; 184
    13ce:	ff 4f       	sbci	r31, 0xFF	; 255
    13d0:	20 81       	ld	r18, Z
    13d2:	21 11       	cpse	r18, r1
    13d4:	0d c0       	rjmp	.+26     	; 0x13f0 <_ZN9CMenuItem10decrCurPosEv+0x26>
    13d6:	dc 01       	movw	r26, r24
    13d8:	a7 5b       	subi	r26, 0xB7	; 183
    13da:	bf 4f       	sbci	r27, 0xFF	; 255
    13dc:	2c 91       	ld	r18, X
    13de:	82 0f       	add	r24, r18
    13e0:	91 1d       	adc	r25, r1
    13e2:	dc 01       	movw	r26, r24
    13e4:	a7 5b       	subi	r26, 0xB7	; 183
    13e6:	bf 4f       	sbci	r27, 0xFF	; 255
    13e8:	8c 91       	ld	r24, X
    13ea:	81 50       	subi	r24, 0x01	; 1
    13ec:	80 83       	st	Z, r24
    13ee:	08 95       	ret
    13f0:	fc 01       	movw	r30, r24
    13f2:	e8 5b       	subi	r30, 0xB8	; 184
    13f4:	ff 4f       	sbci	r31, 0xFF	; 255
    13f6:	21 50       	subi	r18, 0x01	; 1
    13f8:	20 83       	st	Z, r18
    13fa:	08 95       	ret

000013fc <_ZN9CMenuItem9changeRowEv>:
    13fc:	fc 01       	movw	r30, r24
    13fe:	e7 5b       	subi	r30, 0xB7	; 183
    1400:	ff 4f       	sbci	r31, 0xFF	; 255
    1402:	20 81       	ld	r18, Z
    1404:	21 30       	cpi	r18, 0x01	; 1
    1406:	51 f4       	brne	.+20     	; 0x141c <_ZN9CMenuItem9changeRowEv+0x20>
    1408:	32 96       	adiw	r30, 0x02	; 2
    140a:	20 81       	ld	r18, Z
    140c:	22 23       	and	r18, r18
    140e:	99 f0       	breq	.+38     	; 0x1436 <_ZN9CMenuItem9changeRowEv+0x3a>
    1410:	32 97       	sbiw	r30, 0x02	; 2
    1412:	22 e0       	ldi	r18, 0x02	; 2
    1414:	20 83       	st	Z, r18
    1416:	31 97       	sbiw	r30, 0x01	; 1
    1418:	10 82       	st	Z, r1
    141a:	08 95       	ret
    141c:	22 30       	cpi	r18, 0x02	; 2
    141e:	59 f4       	brne	.+22     	; 0x1436 <_ZN9CMenuItem9changeRowEv+0x3a>
    1420:	fc 01       	movw	r30, r24
    1422:	e6 5b       	subi	r30, 0xB6	; 182
    1424:	ff 4f       	sbci	r31, 0xFF	; 255
    1426:	20 81       	ld	r18, Z
    1428:	22 23       	and	r18, r18
    142a:	29 f0       	breq	.+10     	; 0x1436 <_ZN9CMenuItem9changeRowEv+0x3a>
    142c:	31 97       	sbiw	r30, 0x01	; 1
    142e:	21 e0       	ldi	r18, 0x01	; 1
    1430:	20 83       	st	Z, r18
    1432:	31 97       	sbiw	r30, 0x01	; 1
    1434:	10 82       	st	Z, r1
    1436:	08 95       	ret

00001438 <_ZN9CMenuItem4drawEv>:
    1438:	fc 01       	movw	r30, r24
    143a:	e8 5a       	subi	r30, 0xA8	; 168
    143c:	ff 4f       	sbci	r31, 0xFF	; 255
    143e:	01 90       	ld	r0, Z+
    1440:	f0 81       	ld	r31, Z
    1442:	e0 2d       	mov	r30, r0
    1444:	09 95       	icall
    1446:	08 95       	ret

00001448 <_Z9rightFuncP9CMenuItem>:
    1448:	cf 93       	push	r28
    144a:	df 93       	push	r29
    144c:	ec 01       	movw	r28, r24
    144e:	fc 01       	movw	r30, r24
    1450:	e8 5b       	subi	r30, 0xB8	; 184
    1452:	ff 4f       	sbci	r31, 0xFF	; 255
    1454:	80 81       	ld	r24, Z
    1456:	90 e0       	ldi	r25, 0x00	; 0
    1458:	31 96       	adiw	r30, 0x01	; 1
    145a:	20 81       	ld	r18, Z
    145c:	21 30       	cpi	r18, 0x01	; 1
    145e:	29 f4       	brne	.+10     	; 0x146a <_Z9rightFuncP9CMenuItem+0x22>
    1460:	28 a9       	ldd	r18, Y+48	; 0x30
    1462:	30 e0       	ldi	r19, 0x00	; 0
    1464:	21 50       	subi	r18, 0x01	; 1
    1466:	31 09       	sbc	r19, r1
    1468:	07 c0       	rjmp	.+14     	; 0x1478 <_Z9rightFuncP9CMenuItem+0x30>
    146a:	fe 01       	movw	r30, r28
    146c:	ea 5b       	subi	r30, 0xBA	; 186
    146e:	ff 4f       	sbci	r31, 0xFF	; 255
    1470:	20 81       	ld	r18, Z
    1472:	30 e0       	ldi	r19, 0x00	; 0
    1474:	21 50       	subi	r18, 0x01	; 1
    1476:	31 09       	sbc	r19, r1
    1478:	28 17       	cp	r18, r24
    147a:	39 07       	cpc	r19, r25
    147c:	19 f4       	brne	.+6      	; 0x1484 <_Z9rightFuncP9CMenuItem+0x3c>
    147e:	ce 01       	movw	r24, r28
    1480:	bd df       	rcall	.-134    	; 0x13fc <_ZN9CMenuItem9changeRowEv>
    1482:	02 c0       	rjmp	.+4      	; 0x1488 <_Z9rightFuncP9CMenuItem+0x40>
    1484:	ce 01       	movw	r24, r28
    1486:	82 df       	rcall	.-252    	; 0x138c <_ZN9CMenuItem10incrCurPosEv>
    1488:	ce 01       	movw	r24, r28
    148a:	d6 df       	rcall	.-84     	; 0x1438 <_ZN9CMenuItem4drawEv>
    148c:	df 91       	pop	r29
    148e:	cf 91       	pop	r28
    1490:	08 95       	ret

00001492 <_Z17rightFuncZselItemP9CMenuItem>:
    1492:	cf 93       	push	r28
    1494:	df 93       	push	r29
    1496:	ec 01       	movw	r28, r24
    1498:	d7 df       	rcall	.-82     	; 0x1448 <_Z9rightFuncP9CMenuItem>
    149a:	fe 01       	movw	r30, r28
    149c:	e7 5b       	subi	r30, 0xB7	; 183
    149e:	ff 4f       	sbci	r31, 0xFF	; 255
    14a0:	80 81       	ld	r24, Z
    14a2:	81 30       	cpi	r24, 0x01	; 1
    14a4:	49 f4       	brne	.+18     	; 0x14b8 <_Z17rightFuncZselItemP9CMenuItem+0x26>
    14a6:	31 97       	sbiw	r30, 0x01	; 1
    14a8:	e0 81       	ld	r30, Z
    14aa:	e6 95       	lsr	r30
    14ac:	f0 e0       	ldi	r31, 0x00	; 0
    14ae:	ee 5f       	subi	r30, 0xFE	; 254
    14b0:	fe 4f       	sbci	r31, 0xFE	; 254
    14b2:	80 81       	ld	r24, Z
    14b4:	0e 94 5f 1b 	call	0x36be	; 0x36be <_Z9ChangeReg7regAddr>
    14b8:	fe 01       	movw	r30, r28
    14ba:	e7 5b       	subi	r30, 0xB7	; 183
    14bc:	ff 4f       	sbci	r31, 0xFF	; 255
    14be:	80 81       	ld	r24, Z
    14c0:	82 30       	cpi	r24, 0x02	; 2
    14c2:	59 f4       	brne	.+22     	; 0x14da <_Z17rightFuncZselItemP9CMenuItem+0x48>
    14c4:	c8 5b       	subi	r28, 0xB8	; 184
    14c6:	df 4f       	sbci	r29, 0xFF	; 255
    14c8:	e8 81       	ld	r30, Y
    14ca:	e6 95       	lsr	r30
    14cc:	e6 95       	lsr	r30
    14ce:	f0 e0       	ldi	r31, 0x00	; 0
    14d0:	e0 50       	subi	r30, 0x00	; 0
    14d2:	ff 4f       	sbci	r31, 0xFF	; 255
    14d4:	80 81       	ld	r24, Z
    14d6:	0e 94 5f 1b 	call	0x36be	; 0x36be <_Z9ChangeReg7regAddr>
    14da:	df 91       	pop	r29
    14dc:	cf 91       	pop	r28
    14de:	08 95       	ret

000014e0 <_Z8leftFuncP9CMenuItem>:
    14e0:	cf 93       	push	r28
    14e2:	df 93       	push	r29
    14e4:	ec 01       	movw	r28, r24
    14e6:	fc 01       	movw	r30, r24
    14e8:	e8 5b       	subi	r30, 0xB8	; 184
    14ea:	ff 4f       	sbci	r31, 0xFF	; 255
    14ec:	80 81       	ld	r24, Z
    14ee:	81 11       	cpse	r24, r1
    14f0:	02 c0       	rjmp	.+4      	; 0x14f6 <_Z8leftFuncP9CMenuItem+0x16>
    14f2:	ce 01       	movw	r24, r28
    14f4:	83 df       	rcall	.-250    	; 0x13fc <_ZN9CMenuItem9changeRowEv>
    14f6:	ce 01       	movw	r24, r28
    14f8:	68 df       	rcall	.-304    	; 0x13ca <_ZN9CMenuItem10decrCurPosEv>
    14fa:	ce 01       	movw	r24, r28
    14fc:	9d df       	rcall	.-198    	; 0x1438 <_ZN9CMenuItem4drawEv>
    14fe:	df 91       	pop	r29
    1500:	cf 91       	pop	r28
    1502:	08 95       	ret

00001504 <_Z16leftFuncZselItemP9CMenuItem>:
    1504:	cf 93       	push	r28
    1506:	df 93       	push	r29
    1508:	ec 01       	movw	r28, r24
    150a:	ea df       	rcall	.-44     	; 0x14e0 <_Z8leftFuncP9CMenuItem>
    150c:	fe 01       	movw	r30, r28
    150e:	e7 5b       	subi	r30, 0xB7	; 183
    1510:	ff 4f       	sbci	r31, 0xFF	; 255
    1512:	80 81       	ld	r24, Z
    1514:	81 30       	cpi	r24, 0x01	; 1
    1516:	49 f4       	brne	.+18     	; 0x152a <_Z16leftFuncZselItemP9CMenuItem+0x26>
    1518:	31 97       	sbiw	r30, 0x01	; 1
    151a:	e0 81       	ld	r30, Z
    151c:	e6 95       	lsr	r30
    151e:	f0 e0       	ldi	r31, 0x00	; 0
    1520:	ee 5f       	subi	r30, 0xFE	; 254
    1522:	fe 4f       	sbci	r31, 0xFE	; 254
    1524:	80 81       	ld	r24, Z
    1526:	0e 94 5f 1b 	call	0x36be	; 0x36be <_Z9ChangeReg7regAddr>
    152a:	fe 01       	movw	r30, r28
    152c:	e7 5b       	subi	r30, 0xB7	; 183
    152e:	ff 4f       	sbci	r31, 0xFF	; 255
    1530:	80 81       	ld	r24, Z
    1532:	82 30       	cpi	r24, 0x02	; 2
    1534:	59 f4       	brne	.+22     	; 0x154c <_Z16leftFuncZselItemP9CMenuItem+0x48>
    1536:	c8 5b       	subi	r28, 0xB8	; 184
    1538:	df 4f       	sbci	r29, 0xFF	; 255
    153a:	e8 81       	ld	r30, Y
    153c:	e6 95       	lsr	r30
    153e:	e6 95       	lsr	r30
    1540:	f0 e0       	ldi	r31, 0x00	; 0
    1542:	e0 50       	subi	r30, 0x00	; 0
    1544:	ff 4f       	sbci	r31, 0xFF	; 255
    1546:	80 81       	ld	r24, Z
    1548:	0e 94 5f 1b 	call	0x36be	; 0x36be <_Z9ChangeReg7regAddr>
    154c:	df 91       	pop	r29
    154e:	cf 91       	pop	r28
    1550:	08 95       	ret

00001552 <_Z7escFuncP9CMenuItem>:
    1552:	fc 01       	movw	r30, r24
    1554:	e8 5b       	subi	r30, 0xB8	; 184
    1556:	ff 4f       	sbci	r31, 0xFF	; 255
    1558:	10 82       	st	Z, r1
    155a:	31 96       	adiw	r30, 0x01	; 1
    155c:	21 e0       	ldi	r18, 0x01	; 1
    155e:	20 83       	st	Z, r18
    1560:	fc 01       	movw	r30, r24
    1562:	80 81       	ld	r24, Z
    1564:	91 81       	ldd	r25, Z+1	; 0x01
    1566:	90 93 2a 05 	sts	0x052A, r25
    156a:	80 93 29 05 	sts	0x0529, r24
    156e:	10 92 c6 04 	sts	0x04C6, r1
    1572:	85 e0       	ldi	r24, 0x05	; 5
    1574:	0e 94 cb 00 	call	0x196	; 0x196 <_Z8read_adch>
    1578:	80 93 c5 04 	sts	0x04C5, r24
    157c:	80 91 20 05 	lds	r24, 0x0520
    1580:	81 11       	cpse	r24, r1
    1582:	0c c0       	rjmp	.+24     	; 0x159c <_Z7escFuncP9CMenuItem+0x4a>
    1584:	86 eb       	ldi	r24, 0xB6	; 182
    1586:	93 e0       	ldi	r25, 0x03	; 3
    1588:	57 df       	rcall	.-338    	; 0x1438 <_ZN9CMenuItem4drawEv>
    158a:	ff ef       	ldi	r31, 0xFF	; 255
    158c:	2f e9       	ldi	r18, 0x9F	; 159
    158e:	82 e3       	ldi	r24, 0x32	; 50
    1590:	f1 50       	subi	r31, 0x01	; 1
    1592:	20 40       	sbci	r18, 0x00	; 0
    1594:	80 40       	sbci	r24, 0x00	; 0
    1596:	e1 f7       	brne	.-8      	; 0x1590 <_Z7escFuncP9CMenuItem+0x3e>
    1598:	00 c0       	rjmp	.+0      	; 0x159a <_Z7escFuncP9CMenuItem+0x48>
    159a:	00 00       	nop
    159c:	80 91 20 05 	lds	r24, 0x0520
    15a0:	81 30       	cpi	r24, 0x01	; 1
    15a2:	61 f4       	brne	.+24     	; 0x15bc <_Z7escFuncP9CMenuItem+0x6a>
    15a4:	8c e5       	ldi	r24, 0x5C	; 92
    15a6:	93 e0       	ldi	r25, 0x03	; 3
    15a8:	47 df       	rcall	.-370    	; 0x1438 <_ZN9CMenuItem4drawEv>
    15aa:	9f ef       	ldi	r25, 0xFF	; 255
    15ac:	ef e9       	ldi	r30, 0x9F	; 159
    15ae:	f2 e3       	ldi	r31, 0x32	; 50
    15b0:	91 50       	subi	r25, 0x01	; 1
    15b2:	e0 40       	sbci	r30, 0x00	; 0
    15b4:	f0 40       	sbci	r31, 0x00	; 0
    15b6:	e1 f7       	brne	.-8      	; 0x15b0 <_Z7escFuncP9CMenuItem+0x5e>
    15b8:	00 c0       	rjmp	.+0      	; 0x15ba <_Z7escFuncP9CMenuItem+0x68>
    15ba:	00 00       	nop
    15bc:	80 91 29 05 	lds	r24, 0x0529
    15c0:	90 91 2a 05 	lds	r25, 0x052A
    15c4:	39 cf       	rjmp	.-398    	; 0x1438 <_ZN9CMenuItem4drawEv>
    15c6:	08 95       	ret

000015c8 <_Z14escFuncPrkMenuP9CMenuItem>:
    15c8:	fc 01       	movw	r30, r24
    15ca:	e7 5b       	subi	r30, 0xB7	; 183
    15cc:	ff 4f       	sbci	r31, 0xFF	; 255
    15ce:	20 81       	ld	r18, Z
    15d0:	21 30       	cpi	r18, 0x01	; 1
    15d2:	19 f5       	brne	.+70     	; 0x161a <_Z14escFuncPrkMenuP9CMenuItem+0x52>
    15d4:	31 97       	sbiw	r30, 0x01	; 1
    15d6:	20 81       	ld	r18, Z
    15d8:	22 23       	and	r18, r18
    15da:	39 f1       	breq	.+78     	; 0x162a <_Z14escFuncPrkMenuP9CMenuItem+0x62>
    15dc:	1e c0       	rjmp	.+60     	; 0x161a <_Z14escFuncPrkMenuP9CMenuItem+0x52>
    15de:	60 ed       	ldi	r22, 0xD0	; 208
    15e0:	74 e0       	ldi	r23, 0x04	; 4
    15e2:	8f ef       	ldi	r24, 0xFF	; 255
    15e4:	9f e0       	ldi	r25, 0x0F	; 15
    15e6:	0e 94 b3 01 	call	0x366	; 0x366 <_Z13Read_ControlljPh>
    15ea:	64 ed       	ldi	r22, 0xD4	; 212
    15ec:	74 e0       	ldi	r23, 0x04	; 4
    15ee:	8e ef       	ldi	r24, 0xFE	; 254
    15f0:	9f e0       	ldi	r25, 0x0F	; 15
    15f2:	0e 94 b3 01 	call	0x366	; 0x366 <_Z13Read_ControlljPh>
    15f6:	68 ed       	ldi	r22, 0xD8	; 216
    15f8:	74 e0       	ldi	r23, 0x04	; 4
    15fa:	8d ef       	ldi	r24, 0xFD	; 253
    15fc:	9f e0       	ldi	r25, 0x0F	; 15
    15fe:	0e 94 b3 01 	call	0x366	; 0x366 <_Z13Read_ControlljPh>
    1602:	6c ed       	ldi	r22, 0xDC	; 220
    1604:	74 e0       	ldi	r23, 0x04	; 4
    1606:	8c ef       	ldi	r24, 0xFC	; 252
    1608:	9f e0       	ldi	r25, 0x0F	; 15
    160a:	0e 94 b3 01 	call	0x366	; 0x366 <_Z13Read_ControlljPh>
    160e:	80 91 29 05 	lds	r24, 0x0529
    1612:	90 91 2a 05 	lds	r25, 0x052A
    1616:	10 cf       	rjmp	.-480    	; 0x1438 <_ZN9CMenuItem4drawEv>
    1618:	08 95       	ret
    161a:	fc 01       	movw	r30, r24
    161c:	e8 5b       	subi	r30, 0xB8	; 184
    161e:	ff 4f       	sbci	r31, 0xFF	; 255
    1620:	10 82       	st	Z, r1
    1622:	31 96       	adiw	r30, 0x01	; 1
    1624:	21 e0       	ldi	r18, 0x01	; 1
    1626:	20 83       	st	Z, r18
    1628:	da cf       	rjmp	.-76     	; 0x15de <_Z14escFuncPrkMenuP9CMenuItem+0x16>
    162a:	fc 01       	movw	r30, r24
    162c:	80 81       	ld	r24, Z
    162e:	91 81       	ldd	r25, Z+1	; 0x01
    1630:	90 93 2a 05 	sts	0x052A, r25
    1634:	80 93 29 05 	sts	0x0529, r24
    1638:	d2 cf       	rjmp	.-92     	; 0x15de <_Z14escFuncPrkMenuP9CMenuItem+0x16>

0000163a <_Z13upFuncPrkMenuP9CMenuItem>:
    163a:	fc 01       	movw	r30, r24
    163c:	e8 5b       	subi	r30, 0xB8	; 184
    163e:	ff 4f       	sbci	r31, 0xFF	; 255
    1640:	20 81       	ld	r18, Z
    1642:	21 11       	cpse	r18, r1
    1644:	3f c0       	rjmp	.+126    	; 0x16c4 <_Z13upFuncPrkMenuP9CMenuItem+0x8a>
    1646:	31 96       	adiw	r30, 0x01	; 1
    1648:	30 81       	ld	r19, Z
    164a:	31 30       	cpi	r19, 0x01	; 1
    164c:	d9 f5       	brne	.+118    	; 0x16c4 <_Z13upFuncPrkMenuP9CMenuItem+0x8a>
    164e:	44 c0       	rjmp	.+136    	; 0x16d8 <_Z13upFuncPrkMenuP9CMenuItem+0x9e>
    1650:	21 e0       	ldi	r18, 0x01	; 1
    1652:	20 93 10 04 	sts	0x0410, r18
    1656:	34 c0       	rjmp	.+104    	; 0x16c0 <_Z13upFuncPrkMenuP9CMenuItem+0x86>
    1658:	10 92 10 04 	sts	0x0410, r1
    165c:	31 c0       	rjmp	.+98     	; 0x16c0 <_Z13upFuncPrkMenuP9CMenuItem+0x86>
    165e:	e0 91 10 04 	lds	r30, 0x0410
    1662:	f0 e0       	ldi	r31, 0x00	; 0
    1664:	ee 0f       	add	r30, r30
    1666:	ff 1f       	adc	r31, r31
    1668:	36 95       	lsr	r19
    166a:	e3 0f       	add	r30, r19
    166c:	f1 1d       	adc	r31, r1
    166e:	26 95       	lsr	r18
    1670:	ee 0f       	add	r30, r30
    1672:	ff 1f       	adc	r31, r31
    1674:	ee 0f       	add	r30, r30
    1676:	ff 1f       	adc	r31, r31
    1678:	e9 53       	subi	r30, 0x39	; 57
    167a:	fb 4f       	sbci	r31, 0xFB	; 251
    167c:	e2 0f       	add	r30, r18
    167e:	f1 1d       	adc	r31, r1
    1680:	21 85       	ldd	r18, Z+9	; 0x09
    1682:	32 2f       	mov	r19, r18
    1684:	30 7f       	andi	r19, 0xF0	; 240
    1686:	30 5f       	subi	r19, 0xF0	; 240
    1688:	2f 70       	andi	r18, 0x0F	; 15
    168a:	23 2b       	or	r18, r19
    168c:	21 87       	std	Z+9, r18	; 0x09
    168e:	18 c0       	rjmp	.+48     	; 0x16c0 <_Z13upFuncPrkMenuP9CMenuItem+0x86>
    1690:	e0 91 10 04 	lds	r30, 0x0410
    1694:	f0 e0       	ldi	r31, 0x00	; 0
    1696:	ee 0f       	add	r30, r30
    1698:	ff 1f       	adc	r31, r31
    169a:	36 95       	lsr	r19
    169c:	e3 0f       	add	r30, r19
    169e:	f1 1d       	adc	r31, r1
    16a0:	26 95       	lsr	r18
    16a2:	ee 0f       	add	r30, r30
    16a4:	ff 1f       	adc	r31, r31
    16a6:	ee 0f       	add	r30, r30
    16a8:	ff 1f       	adc	r31, r31
    16aa:	e9 53       	subi	r30, 0x39	; 57
    16ac:	fb 4f       	sbci	r31, 0xFB	; 251
    16ae:	e2 0f       	add	r30, r18
    16b0:	f1 1d       	adc	r31, r1
    16b2:	21 85       	ldd	r18, Z+9	; 0x09
    16b4:	31 e0       	ldi	r19, 0x01	; 1
    16b6:	32 0f       	add	r19, r18
    16b8:	3f 70       	andi	r19, 0x0F	; 15
    16ba:	20 7f       	andi	r18, 0xF0	; 240
    16bc:	23 2b       	or	r18, r19
    16be:	21 87       	std	Z+9, r18	; 0x09
    16c0:	bb ce       	rjmp	.-650    	; 0x1438 <_ZN9CMenuItem4drawEv>
    16c2:	08 95       	ret
    16c4:	fc 01       	movw	r30, r24
    16c6:	e7 5b       	subi	r30, 0xB7	; 183
    16c8:	ff 4f       	sbci	r31, 0xFF	; 255
    16ca:	30 81       	ld	r19, Z
    16cc:	43 2f       	mov	r20, r19
    16ce:	41 70       	andi	r20, 0x01	; 1
    16d0:	24 1b       	sub	r18, r20
    16d2:	20 fd       	sbrc	r18, 0
    16d4:	dd cf       	rjmp	.-70     	; 0x1690 <_Z13upFuncPrkMenuP9CMenuItem+0x56>
    16d6:	c3 cf       	rjmp	.-122    	; 0x165e <_Z13upFuncPrkMenuP9CMenuItem+0x24>
    16d8:	20 91 10 04 	lds	r18, 0x0410
    16dc:	22 23       	and	r18, r18
    16de:	09 f4       	brne	.+2      	; 0x16e2 <_Z13upFuncPrkMenuP9CMenuItem+0xa8>
    16e0:	b7 cf       	rjmp	.-146    	; 0x1650 <_Z13upFuncPrkMenuP9CMenuItem+0x16>
    16e2:	ba cf       	rjmp	.-140    	; 0x1658 <_Z13upFuncPrkMenuP9CMenuItem+0x1e>

000016e4 <_Z15downFuncPrkMenuP9CMenuItem>:
    16e4:	fc 01       	movw	r30, r24
    16e6:	e8 5b       	subi	r30, 0xB8	; 184
    16e8:	ff 4f       	sbci	r31, 0xFF	; 255
    16ea:	20 81       	ld	r18, Z
    16ec:	21 11       	cpse	r18, r1
    16ee:	40 c0       	rjmp	.+128    	; 0x1770 <_Z15downFuncPrkMenuP9CMenuItem+0x8c>
    16f0:	31 96       	adiw	r30, 0x01	; 1
    16f2:	30 81       	ld	r19, Z
    16f4:	31 30       	cpi	r19, 0x01	; 1
    16f6:	e1 f5       	brne	.+120    	; 0x1770 <_Z15downFuncPrkMenuP9CMenuItem+0x8c>
    16f8:	45 c0       	rjmp	.+138    	; 0x1784 <_Z15downFuncPrkMenuP9CMenuItem+0xa0>
    16fa:	21 50       	subi	r18, 0x01	; 1
    16fc:	20 93 10 04 	sts	0x0410, r18
    1700:	35 c0       	rjmp	.+106    	; 0x176c <_Z15downFuncPrkMenuP9CMenuItem+0x88>
    1702:	21 e0       	ldi	r18, 0x01	; 1
    1704:	20 93 10 04 	sts	0x0410, r18
    1708:	31 c0       	rjmp	.+98     	; 0x176c <_Z15downFuncPrkMenuP9CMenuItem+0x88>
    170a:	e0 91 10 04 	lds	r30, 0x0410
    170e:	f0 e0       	ldi	r31, 0x00	; 0
    1710:	ee 0f       	add	r30, r30
    1712:	ff 1f       	adc	r31, r31
    1714:	36 95       	lsr	r19
    1716:	e3 0f       	add	r30, r19
    1718:	f1 1d       	adc	r31, r1
    171a:	26 95       	lsr	r18
    171c:	ee 0f       	add	r30, r30
    171e:	ff 1f       	adc	r31, r31
    1720:	ee 0f       	add	r30, r30
    1722:	ff 1f       	adc	r31, r31
    1724:	e9 53       	subi	r30, 0x39	; 57
    1726:	fb 4f       	sbci	r31, 0xFB	; 251
    1728:	e2 0f       	add	r30, r18
    172a:	f1 1d       	adc	r31, r1
    172c:	21 85       	ldd	r18, Z+9	; 0x09
    172e:	32 2f       	mov	r19, r18
    1730:	30 7f       	andi	r19, 0xF0	; 240
    1732:	30 51       	subi	r19, 0x10	; 16
    1734:	2f 70       	andi	r18, 0x0F	; 15
    1736:	23 2b       	or	r18, r19
    1738:	21 87       	std	Z+9, r18	; 0x09
    173a:	18 c0       	rjmp	.+48     	; 0x176c <_Z15downFuncPrkMenuP9CMenuItem+0x88>
    173c:	e0 91 10 04 	lds	r30, 0x0410
    1740:	f0 e0       	ldi	r31, 0x00	; 0
    1742:	ee 0f       	add	r30, r30
    1744:	ff 1f       	adc	r31, r31
    1746:	36 95       	lsr	r19
    1748:	e3 0f       	add	r30, r19
    174a:	f1 1d       	adc	r31, r1
    174c:	26 95       	lsr	r18
    174e:	ee 0f       	add	r30, r30
    1750:	ff 1f       	adc	r31, r31
    1752:	ee 0f       	add	r30, r30
    1754:	ff 1f       	adc	r31, r31
    1756:	e9 53       	subi	r30, 0x39	; 57
    1758:	fb 4f       	sbci	r31, 0xFB	; 251
    175a:	e2 0f       	add	r30, r18
    175c:	f1 1d       	adc	r31, r1
    175e:	21 85       	ldd	r18, Z+9	; 0x09
    1760:	3f ef       	ldi	r19, 0xFF	; 255
    1762:	32 0f       	add	r19, r18
    1764:	3f 70       	andi	r19, 0x0F	; 15
    1766:	20 7f       	andi	r18, 0xF0	; 240
    1768:	23 2b       	or	r18, r19
    176a:	21 87       	std	Z+9, r18	; 0x09
    176c:	65 ce       	rjmp	.-822    	; 0x1438 <_ZN9CMenuItem4drawEv>
    176e:	08 95       	ret
    1770:	fc 01       	movw	r30, r24
    1772:	e7 5b       	subi	r30, 0xB7	; 183
    1774:	ff 4f       	sbci	r31, 0xFF	; 255
    1776:	30 81       	ld	r19, Z
    1778:	43 2f       	mov	r20, r19
    177a:	41 70       	andi	r20, 0x01	; 1
    177c:	24 1b       	sub	r18, r20
    177e:	20 fd       	sbrc	r18, 0
    1780:	dd cf       	rjmp	.-70     	; 0x173c <_Z15downFuncPrkMenuP9CMenuItem+0x58>
    1782:	c3 cf       	rjmp	.-122    	; 0x170a <_Z15downFuncPrkMenuP9CMenuItem+0x26>
    1784:	20 91 10 04 	lds	r18, 0x0410
    1788:	21 11       	cpse	r18, r1
    178a:	b7 cf       	rjmp	.-146    	; 0x16fa <_Z15downFuncPrkMenuP9CMenuItem+0x16>
    178c:	ba cf       	rjmp	.-140    	; 0x1702 <_Z15downFuncPrkMenuP9CMenuItem+0x1e>

0000178e <_Z10escFuncLCAP9CMenuItem>:
    178e:	fc 01       	movw	r30, r24
    1790:	80 81       	ld	r24, Z
    1792:	91 81       	ldd	r25, Z+1	; 0x01
    1794:	90 93 2a 05 	sts	0x052A, r25
    1798:	80 93 29 05 	sts	0x0529, r24
    179c:	4d ce       	rjmp	.-870    	; 0x1438 <_ZN9CMenuItem4drawEv>
    179e:	08 95       	ret

000017a0 <_Z15escFuncZselMenuP9CMenuItem>:
    17a0:	fc 01       	movw	r30, r24
    17a2:	e7 5b       	subi	r30, 0xB7	; 183
    17a4:	ff 4f       	sbci	r31, 0xFF	; 255
    17a6:	20 81       	ld	r18, Z
    17a8:	21 30       	cpi	r18, 0x01	; 1
    17aa:	59 f4       	brne	.+22     	; 0x17c2 <_Z15escFuncZselMenuP9CMenuItem+0x22>
    17ac:	31 97       	sbiw	r30, 0x01	; 1
    17ae:	20 81       	ld	r18, Z
    17b0:	22 23       	and	r18, r18
    17b2:	99 f0       	breq	.+38     	; 0x17da <_Z15escFuncZselMenuP9CMenuItem+0x3a>
    17b4:	06 c0       	rjmp	.+12     	; 0x17c2 <_Z15escFuncZselMenuP9CMenuItem+0x22>
    17b6:	80 91 29 05 	lds	r24, 0x0529
    17ba:	90 91 2a 05 	lds	r25, 0x052A
    17be:	3c ce       	rjmp	.-904    	; 0x1438 <_ZN9CMenuItem4drawEv>
    17c0:	08 95       	ret
    17c2:	80 91 29 05 	lds	r24, 0x0529
    17c6:	90 91 2a 05 	lds	r25, 0x052A
    17ca:	fc 01       	movw	r30, r24
    17cc:	e8 5b       	subi	r30, 0xB8	; 184
    17ce:	ff 4f       	sbci	r31, 0xFF	; 255
    17d0:	10 82       	st	Z, r1
    17d2:	31 96       	adiw	r30, 0x01	; 1
    17d4:	21 e0       	ldi	r18, 0x01	; 1
    17d6:	20 83       	st	Z, r18
    17d8:	ee cf       	rjmp	.-36     	; 0x17b6 <_Z15escFuncZselMenuP9CMenuItem+0x16>
    17da:	fc 01       	movw	r30, r24
    17dc:	80 81       	ld	r24, Z
    17de:	91 81       	ldd	r25, Z+1	; 0x01
    17e0:	90 93 2a 05 	sts	0x052A, r25
    17e4:	80 93 29 05 	sts	0x0529, r24
    17e8:	e6 cf       	rjmp	.-52     	; 0x17b6 <_Z15escFuncZselMenuP9CMenuItem+0x16>

000017ea <_Z17SaveStateToEEPROMP12StateOfPlatePv>:
    17ea:	42 e6       	ldi	r20, 0x62	; 98
    17ec:	50 e0       	ldi	r21, 0x00	; 0
    17ee:	0c 94 cd 1d 	jmp	0x3b9a	; 0x3b9a <__eeupd_block_m128>
    17f2:	08 95       	ret

000017f4 <_Z13okFuncPrkMenuP9CMenuItem>:
    17f4:	60 e0       	ldi	r22, 0x00	; 0
    17f6:	70 e0       	ldi	r23, 0x00	; 0
    17f8:	87 ec       	ldi	r24, 0xC7	; 199
    17fa:	94 e0       	ldi	r25, 0x04	; 4
    17fc:	f6 df       	rcall	.-20     	; 0x17ea <_Z17SaveStateToEEPROMP12StateOfPlatePv>
    17fe:	60 ed       	ldi	r22, 0xD0	; 208
    1800:	74 e0       	ldi	r23, 0x04	; 4
    1802:	8f ef       	ldi	r24, 0xFF	; 255
    1804:	97 e0       	ldi	r25, 0x07	; 7
    1806:	0e 94 98 01 	call	0x330	; 0x330 <_Z14Write_ControlljPh>
    180a:	64 ed       	ldi	r22, 0xD4	; 212
    180c:	74 e0       	ldi	r23, 0x04	; 4
    180e:	8e ef       	ldi	r24, 0xFE	; 254
    1810:	97 e0       	ldi	r25, 0x07	; 7
    1812:	0e 94 98 01 	call	0x330	; 0x330 <_Z14Write_ControlljPh>
    1816:	68 ed       	ldi	r22, 0xD8	; 216
    1818:	74 e0       	ldi	r23, 0x04	; 4
    181a:	8d ef       	ldi	r24, 0xFD	; 253
    181c:	97 e0       	ldi	r25, 0x07	; 7
    181e:	0e 94 98 01 	call	0x330	; 0x330 <_Z14Write_ControlljPh>
    1822:	6c ed       	ldi	r22, 0xDC	; 220
    1824:	74 e0       	ldi	r23, 0x04	; 4
    1826:	8c ef       	ldi	r24, 0xFC	; 252
    1828:	97 e0       	ldi	r25, 0x07	; 7
    182a:	0c 94 98 01 	jmp	0x330	; 0x330 <_Z14Write_ControlljPh>
    182e:	08 95       	ret

00001830 <_Z14upFuncZselMenuP9CMenuItem>:
    1830:	cf 93       	push	r28
    1832:	df 93       	push	r29
    1834:	ec 01       	movw	r28, r24
    1836:	e0 91 29 05 	lds	r30, 0x0529
    183a:	f0 91 2a 05 	lds	r31, 0x052A
    183e:	e7 5b       	subi	r30, 0xB7	; 183
    1840:	ff 4f       	sbci	r31, 0xFF	; 255
    1842:	80 81       	ld	r24, Z
    1844:	81 30       	cpi	r24, 0x01	; 1
    1846:	c9 f5       	brne	.+114    	; 0x18ba <_Z14upFuncZselMenuP9CMenuItem+0x8a>
    1848:	fe 01       	movw	r30, r28
    184a:	e8 5b       	subi	r30, 0xB8	; 184
    184c:	ff 4f       	sbci	r31, 0xFF	; 255
    184e:	30 81       	ld	r19, Z
    1850:	83 2f       	mov	r24, r19
    1852:	86 95       	lsr	r24
    1854:	90 e0       	ldi	r25, 0x00	; 0
    1856:	fc 01       	movw	r30, r24
    1858:	ee 0f       	add	r30, r30
    185a:	ff 1f       	adc	r31, r31
    185c:	e6 5f       	subi	r30, 0xF6	; 246
    185e:	fe 4f       	sbci	r31, 0xFE	; 254
    1860:	01 90       	ld	r0, Z+
    1862:	f0 81       	ld	r31, Z
    1864:	e0 2d       	mov	r30, r0
    1866:	60 81       	ld	r22, Z
    1868:	73 2f       	mov	r23, r19
    186a:	71 70       	andi	r23, 0x01	; 1
    186c:	30 fd       	sbrc	r19, 0
    186e:	ab c0       	rjmp	.+342    	; 0x19c6 <_Z14upFuncZselMenuP9CMenuItem+0x196>
    1870:	a5 c0       	rjmp	.+330    	; 0x19bc <_Z14upFuncZselMenuP9CMenuItem+0x18c>
    1872:	da 01       	movw	r26, r20
    1874:	02 c0       	rjmp	.+4      	; 0x187a <_Z14upFuncZselMenuP9CMenuItem+0x4a>
    1876:	b5 95       	asr	r27
    1878:	a7 95       	ror	r26
    187a:	2a 95       	dec	r18
    187c:	e2 f7       	brpl	.-8      	; 0x1876 <_Z14upFuncZselMenuP9CMenuItem+0x46>
    187e:	9d 01       	movw	r18, r26
    1880:	af 30       	cpi	r26, 0x0F	; 15
    1882:	10 f4       	brcc	.+4      	; 0x1888 <_Z14upFuncZselMenuP9CMenuItem+0x58>
    1884:	2f 5f       	subi	r18, 0xFF	; 255
    1886:	01 c0       	rjmp	.+2      	; 0x188a <_Z14upFuncZselMenuP9CMenuItem+0x5a>
    1888:	20 e0       	ldi	r18, 0x00	; 0
    188a:	77 23       	and	r23, r23
    188c:	09 f4       	brne	.+2      	; 0x1890 <_Z14upFuncZselMenuP9CMenuItem+0x60>
    188e:	a4 c0       	rjmp	.+328    	; 0x19d8 <_Z14upFuncZselMenuP9CMenuItem+0x1a8>
    1890:	9f c0       	rjmp	.+318    	; 0x19d0 <_Z14upFuncZselMenuP9CMenuItem+0x1a0>
    1892:	02 c0       	rjmp	.+4      	; 0x1898 <_Z14upFuncZselMenuP9CMenuItem+0x68>
    1894:	22 0f       	add	r18, r18
    1896:	33 1f       	adc	r19, r19
    1898:	4a 95       	dec	r20
    189a:	e2 f7       	brpl	.-8      	; 0x1894 <_Z14upFuncZselMenuP9CMenuItem+0x64>
    189c:	26 0f       	add	r18, r22
    189e:	20 83       	st	Z, r18
    18a0:	fc 01       	movw	r30, r24
    18a2:	ee 5f       	subi	r30, 0xFE	; 254
    18a4:	fe 4f       	sbci	r31, 0xFE	; 254
    18a6:	60 81       	ld	r22, Z
    18a8:	81 e2       	ldi	r24, 0x21	; 33
    18aa:	95 e0       	ldi	r25, 0x05	; 5
    18ac:	0e 94 ea 1b 	call	0x37d4	; 0x37d4 <_Z12SetZselParamP9ZSELPARAM7regAddr>
    18b0:	60 e0       	ldi	r22, 0x00	; 0
    18b2:	70 e0       	ldi	r23, 0x00	; 0
    18b4:	87 ec       	ldi	r24, 0xC7	; 199
    18b6:	94 e0       	ldi	r25, 0x04	; 4
    18b8:	98 df       	rcall	.-208    	; 0x17ea <_Z17SaveStateToEEPROMP12StateOfPlatePv>
    18ba:	e0 91 29 05 	lds	r30, 0x0529
    18be:	f0 91 2a 05 	lds	r31, 0x052A
    18c2:	e7 5b       	subi	r30, 0xB7	; 183
    18c4:	ff 4f       	sbci	r31, 0xFF	; 255
    18c6:	80 81       	ld	r24, Z
    18c8:	82 30       	cpi	r24, 0x02	; 2
    18ca:	09 f0       	breq	.+2      	; 0x18ce <_Z14upFuncZselMenuP9CMenuItem+0x9e>
    18cc:	71 c0       	rjmp	.+226    	; 0x19b0 <_Z14upFuncZselMenuP9CMenuItem+0x180>
    18ce:	ce 01       	movw	r24, r28
    18d0:	43 dd       	rcall	.-1402   	; 0x1358 <_ZN9CMenuItem17getCursorPositionEv>
    18d2:	91 51       	subi	r25, 0x11	; 17
    18d4:	91 31       	cpi	r25, 0x11	; 17
    18d6:	b0 f4       	brcc	.+44     	; 0x1904 <_Z14upFuncZselMenuP9CMenuItem+0xd4>
    18d8:	ce 01       	movw	r24, r28
    18da:	3e dd       	rcall	.-1412   	; 0x1358 <_ZN9CMenuItem17getCursorPositionEv>
    18dc:	89 2f       	mov	r24, r25
    18de:	90 e0       	ldi	r25, 0x00	; 0
    18e0:	41 97       	sbiw	r24, 0x11	; 17
    18e2:	fc 01       	movw	r30, r24
    18e4:	e9 53       	subi	r30, 0x39	; 57
    18e6:	fb 4f       	sbci	r31, 0xFB	; 251
    18e8:	22 81       	ldd	r18, Z+2	; 0x02
    18ea:	29 30       	cpi	r18, 0x09	; 9
    18ec:	30 f4       	brcc	.+12     	; 0x18fa <_Z14upFuncZselMenuP9CMenuItem+0xca>
    18ee:	fc 01       	movw	r30, r24
    18f0:	e9 53       	subi	r30, 0x39	; 57
    18f2:	fb 4f       	sbci	r31, 0xFB	; 251
    18f4:	2f 5f       	subi	r18, 0xFF	; 255
    18f6:	22 83       	std	Z+2, r18	; 0x02
    18f8:	5b c0       	rjmp	.+182    	; 0x19b0 <_Z14upFuncZselMenuP9CMenuItem+0x180>
    18fa:	fc 01       	movw	r30, r24
    18fc:	e9 53       	subi	r30, 0x39	; 57
    18fe:	fb 4f       	sbci	r31, 0xFB	; 251
    1900:	12 82       	std	Z+2, r1	; 0x02
    1902:	56 c0       	rjmp	.+172    	; 0x19b0 <_Z14upFuncZselMenuP9CMenuItem+0x180>
    1904:	c8 5b       	subi	r28, 0xB8	; 184
    1906:	df 4f       	sbci	r29, 0xFF	; 255
    1908:	28 81       	ld	r18, Y
    190a:	8d ec       	ldi	r24, 0xCD	; 205
    190c:	28 9f       	mul	r18, r24
    190e:	81 2d       	mov	r24, r1
    1910:	11 24       	eor	r1, r1
    1912:	86 95       	lsr	r24
    1914:	86 95       	lsr	r24
    1916:	90 e0       	ldi	r25, 0x00	; 0
    1918:	fc 01       	movw	r30, r24
    191a:	ee 0f       	add	r30, r30
    191c:	ff 1f       	adc	r31, r31
    191e:	ea 5f       	subi	r30, 0xFA	; 250
    1920:	fe 4f       	sbci	r31, 0xFE	; 254
    1922:	01 90       	ld	r0, Z+
    1924:	f0 81       	ld	r31, Z
    1926:	e0 2d       	mov	r30, r0
    1928:	40 81       	ld	r20, Z
    192a:	51 81       	ldd	r21, Z+1	; 0x01
    192c:	24 30       	cpi	r18, 0x04	; 4
    192e:	29 f4       	brne	.+10     	; 0x193a <_Z14upFuncZselMenuP9CMenuItem+0x10a>
    1930:	4f 5f       	subi	r20, 0xFF	; 255
    1932:	5f 4f       	sbci	r21, 0xFF	; 255
    1934:	51 83       	std	Z+1, r21	; 0x01
    1936:	40 83       	st	Z, r20
    1938:	2e c0       	rjmp	.+92     	; 0x1996 <_Z14upFuncZselMenuP9CMenuItem+0x166>
    193a:	30 e0       	ldi	r19, 0x00	; 0
    193c:	20 95       	com	r18
    193e:	30 95       	com	r19
    1940:	23 70       	andi	r18, 0x03	; 3
    1942:	33 27       	eor	r19, r19
    1944:	22 0f       	add	r18, r18
    1946:	33 1f       	adc	r19, r19
    1948:	22 0f       	add	r18, r18
    194a:	33 1f       	adc	r19, r19
    194c:	6f e0       	ldi	r22, 0x0F	; 15
    194e:	70 e0       	ldi	r23, 0x00	; 0
    1950:	02 2e       	mov	r0, r18
    1952:	02 c0       	rjmp	.+4      	; 0x1958 <_Z14upFuncZselMenuP9CMenuItem+0x128>
    1954:	66 0f       	add	r22, r22
    1956:	77 1f       	adc	r23, r23
    1958:	0a 94       	dec	r0
    195a:	e2 f7       	brpl	.-8      	; 0x1954 <_Z14upFuncZselMenuP9CMenuItem+0x124>
    195c:	db 01       	movw	r26, r22
    195e:	a4 23       	and	r26, r20
    1960:	b5 23       	and	r27, r21
    1962:	02 2e       	mov	r0, r18
    1964:	02 c0       	rjmp	.+4      	; 0x196a <_Z14upFuncZselMenuP9CMenuItem+0x13a>
    1966:	b6 95       	lsr	r27
    1968:	a7 95       	ror	r26
    196a:	0a 94       	dec	r0
    196c:	e2 f7       	brpl	.-8      	; 0x1966 <_Z14upFuncZselMenuP9CMenuItem+0x136>
    196e:	af 30       	cpi	r26, 0x0F	; 15
    1970:	10 f4       	brcc	.+4      	; 0x1976 <_Z14upFuncZselMenuP9CMenuItem+0x146>
    1972:	af 5f       	subi	r26, 0xFF	; 255
    1974:	01 c0       	rjmp	.+2      	; 0x1978 <_Z14upFuncZselMenuP9CMenuItem+0x148>
    1976:	a0 e0       	ldi	r26, 0x00	; 0
    1978:	b0 e0       	ldi	r27, 0x00	; 0
    197a:	ed 01       	movw	r28, r26
    197c:	02 c0       	rjmp	.+4      	; 0x1982 <_Z14upFuncZselMenuP9CMenuItem+0x152>
    197e:	cc 0f       	add	r28, r28
    1980:	dd 1f       	adc	r29, r29
    1982:	2a 95       	dec	r18
    1984:	e2 f7       	brpl	.-8      	; 0x197e <_Z14upFuncZselMenuP9CMenuItem+0x14e>
    1986:	60 95       	com	r22
    1988:	70 95       	com	r23
    198a:	46 23       	and	r20, r22
    198c:	57 23       	and	r21, r23
    198e:	4c 0f       	add	r20, r28
    1990:	5d 1f       	adc	r21, r29
    1992:	51 83       	std	Z+1, r21	; 0x01
    1994:	40 83       	st	Z, r20
    1996:	fc 01       	movw	r30, r24
    1998:	e0 50       	subi	r30, 0x00	; 0
    199a:	ff 4f       	sbci	r31, 0xFF	; 255
    199c:	60 81       	ld	r22, Z
    199e:	81 e2       	ldi	r24, 0x21	; 33
    19a0:	95 e0       	ldi	r25, 0x05	; 5
    19a2:	0e 94 ea 1b 	call	0x37d4	; 0x37d4 <_Z12SetZselParamP9ZSELPARAM7regAddr>
    19a6:	60 e0       	ldi	r22, 0x00	; 0
    19a8:	70 e0       	ldi	r23, 0x00	; 0
    19aa:	87 ec       	ldi	r24, 0xC7	; 199
    19ac:	94 e0       	ldi	r25, 0x04	; 4
    19ae:	1d df       	rcall	.-454    	; 0x17ea <_Z17SaveStateToEEPROMP12StateOfPlatePv>
    19b0:	80 91 29 05 	lds	r24, 0x0529
    19b4:	90 91 2a 05 	lds	r25, 0x052A
    19b8:	3f dd       	rcall	.-1410   	; 0x1438 <_ZN9CMenuItem4drawEv>
    19ba:	12 c0       	rjmp	.+36     	; 0x19e0 <_Z14upFuncZselMenuP9CMenuItem+0x1b0>
    19bc:	46 2f       	mov	r20, r22
    19be:	40 7f       	andi	r20, 0xF0	; 240
    19c0:	50 e0       	ldi	r21, 0x00	; 0
    19c2:	24 e0       	ldi	r18, 0x04	; 4
    19c4:	56 cf       	rjmp	.-340    	; 0x1872 <_Z14upFuncZselMenuP9CMenuItem+0x42>
    19c6:	46 2f       	mov	r20, r22
    19c8:	4f 70       	andi	r20, 0x0F	; 15
    19ca:	50 e0       	ldi	r21, 0x00	; 0
    19cc:	20 e0       	ldi	r18, 0x00	; 0
    19ce:	51 cf       	rjmp	.-350    	; 0x1872 <_Z14upFuncZselMenuP9CMenuItem+0x42>
    19d0:	60 7f       	andi	r22, 0xF0	; 240
    19d2:	30 e0       	ldi	r19, 0x00	; 0
    19d4:	40 e0       	ldi	r20, 0x00	; 0
    19d6:	5d cf       	rjmp	.-326    	; 0x1892 <_Z14upFuncZselMenuP9CMenuItem+0x62>
    19d8:	6f 70       	andi	r22, 0x0F	; 15
    19da:	30 e0       	ldi	r19, 0x00	; 0
    19dc:	44 e0       	ldi	r20, 0x04	; 4
    19de:	59 cf       	rjmp	.-334    	; 0x1892 <_Z14upFuncZselMenuP9CMenuItem+0x62>
    19e0:	df 91       	pop	r29
    19e2:	cf 91       	pop	r28
    19e4:	08 95       	ret

000019e6 <_Z16downFuncZselMenuP9CMenuItem>:
    19e6:	cf 93       	push	r28
    19e8:	df 93       	push	r29
    19ea:	ec 01       	movw	r28, r24
    19ec:	20 91 29 05 	lds	r18, 0x0529
    19f0:	30 91 2a 05 	lds	r19, 0x052A
    19f4:	f9 01       	movw	r30, r18
    19f6:	e7 5b       	subi	r30, 0xB7	; 183
    19f8:	ff 4f       	sbci	r31, 0xFF	; 255
    19fa:	80 81       	ld	r24, Z
    19fc:	81 30       	cpi	r24, 0x01	; 1
    19fe:	b9 f5       	brne	.+110    	; 0x1a6e <_Z16downFuncZselMenuP9CMenuItem+0x88>
    1a00:	31 97       	sbiw	r30, 0x01	; 1
    1a02:	30 81       	ld	r19, Z
    1a04:	83 2f       	mov	r24, r19
    1a06:	86 95       	lsr	r24
    1a08:	90 e0       	ldi	r25, 0x00	; 0
    1a0a:	fc 01       	movw	r30, r24
    1a0c:	ee 0f       	add	r30, r30
    1a0e:	ff 1f       	adc	r31, r31
    1a10:	e6 5f       	subi	r30, 0xF6	; 246
    1a12:	fe 4f       	sbci	r31, 0xFE	; 254
    1a14:	01 90       	ld	r0, Z+
    1a16:	f0 81       	ld	r31, Z
    1a18:	e0 2d       	mov	r30, r0
    1a1a:	60 81       	ld	r22, Z
    1a1c:	73 2f       	mov	r23, r19
    1a1e:	71 70       	andi	r23, 0x01	; 1
    1a20:	30 fd       	sbrc	r19, 0
    1a22:	b0 c0       	rjmp	.+352    	; 0x1b84 <_Z16downFuncZselMenuP9CMenuItem+0x19e>
    1a24:	aa c0       	rjmp	.+340    	; 0x1b7a <_Z16downFuncZselMenuP9CMenuItem+0x194>
    1a26:	da 01       	movw	r26, r20
    1a28:	02 c0       	rjmp	.+4      	; 0x1a2e <_Z16downFuncZselMenuP9CMenuItem+0x48>
    1a2a:	b5 95       	asr	r27
    1a2c:	a7 95       	ror	r26
    1a2e:	2a 95       	dec	r18
    1a30:	e2 f7       	brpl	.-8      	; 0x1a2a <_Z16downFuncZselMenuP9CMenuItem+0x44>
    1a32:	9d 01       	movw	r18, r26
    1a34:	aa 23       	and	r26, r26
    1a36:	11 f0       	breq	.+4      	; 0x1a3c <_Z16downFuncZselMenuP9CMenuItem+0x56>
    1a38:	21 50       	subi	r18, 0x01	; 1
    1a3a:	01 c0       	rjmp	.+2      	; 0x1a3e <_Z16downFuncZselMenuP9CMenuItem+0x58>
    1a3c:	2f e0       	ldi	r18, 0x0F	; 15
    1a3e:	77 23       	and	r23, r23
    1a40:	09 f4       	brne	.+2      	; 0x1a44 <_Z16downFuncZselMenuP9CMenuItem+0x5e>
    1a42:	a9 c0       	rjmp	.+338    	; 0x1b96 <_Z16downFuncZselMenuP9CMenuItem+0x1b0>
    1a44:	a4 c0       	rjmp	.+328    	; 0x1b8e <_Z16downFuncZselMenuP9CMenuItem+0x1a8>
    1a46:	02 c0       	rjmp	.+4      	; 0x1a4c <_Z16downFuncZselMenuP9CMenuItem+0x66>
    1a48:	22 0f       	add	r18, r18
    1a4a:	33 1f       	adc	r19, r19
    1a4c:	4a 95       	dec	r20
    1a4e:	e2 f7       	brpl	.-8      	; 0x1a48 <_Z16downFuncZselMenuP9CMenuItem+0x62>
    1a50:	26 0f       	add	r18, r22
    1a52:	20 83       	st	Z, r18
    1a54:	fc 01       	movw	r30, r24
    1a56:	ee 5f       	subi	r30, 0xFE	; 254
    1a58:	fe 4f       	sbci	r31, 0xFE	; 254
    1a5a:	60 81       	ld	r22, Z
    1a5c:	81 e2       	ldi	r24, 0x21	; 33
    1a5e:	95 e0       	ldi	r25, 0x05	; 5
    1a60:	0e 94 ea 1b 	call	0x37d4	; 0x37d4 <_Z12SetZselParamP9ZSELPARAM7regAddr>
    1a64:	60 e0       	ldi	r22, 0x00	; 0
    1a66:	70 e0       	ldi	r23, 0x00	; 0
    1a68:	87 ec       	ldi	r24, 0xC7	; 199
    1a6a:	94 e0       	ldi	r25, 0x04	; 4
    1a6c:	be de       	rcall	.-644    	; 0x17ea <_Z17SaveStateToEEPROMP12StateOfPlatePv>
    1a6e:	e0 91 29 05 	lds	r30, 0x0529
    1a72:	f0 91 2a 05 	lds	r31, 0x052A
    1a76:	e7 5b       	subi	r30, 0xB7	; 183
    1a78:	ff 4f       	sbci	r31, 0xFF	; 255
    1a7a:	80 81       	ld	r24, Z
    1a7c:	82 30       	cpi	r24, 0x02	; 2
    1a7e:	09 f0       	breq	.+2      	; 0x1a82 <_Z16downFuncZselMenuP9CMenuItem+0x9c>
    1a80:	76 c0       	rjmp	.+236    	; 0x1b6e <_Z16downFuncZselMenuP9CMenuItem+0x188>
    1a82:	ce 01       	movw	r24, r28
    1a84:	69 dc       	rcall	.-1838   	; 0x1358 <_ZN9CMenuItem17getCursorPositionEv>
    1a86:	91 51       	subi	r25, 0x11	; 17
    1a88:	91 31       	cpi	r25, 0x11	; 17
    1a8a:	b8 f4       	brcc	.+46     	; 0x1aba <_Z16downFuncZselMenuP9CMenuItem+0xd4>
    1a8c:	ce 01       	movw	r24, r28
    1a8e:	64 dc       	rcall	.-1848   	; 0x1358 <_ZN9CMenuItem17getCursorPositionEv>
    1a90:	89 2f       	mov	r24, r25
    1a92:	90 e0       	ldi	r25, 0x00	; 0
    1a94:	41 97       	sbiw	r24, 0x11	; 17
    1a96:	fc 01       	movw	r30, r24
    1a98:	e9 53       	subi	r30, 0x39	; 57
    1a9a:	fb 4f       	sbci	r31, 0xFB	; 251
    1a9c:	22 81       	ldd	r18, Z+2	; 0x02
    1a9e:	22 23       	and	r18, r18
    1aa0:	31 f0       	breq	.+12     	; 0x1aae <_Z16downFuncZselMenuP9CMenuItem+0xc8>
    1aa2:	fc 01       	movw	r30, r24
    1aa4:	e9 53       	subi	r30, 0x39	; 57
    1aa6:	fb 4f       	sbci	r31, 0xFB	; 251
    1aa8:	21 50       	subi	r18, 0x01	; 1
    1aaa:	22 83       	std	Z+2, r18	; 0x02
    1aac:	60 c0       	rjmp	.+192    	; 0x1b6e <_Z16downFuncZselMenuP9CMenuItem+0x188>
    1aae:	fc 01       	movw	r30, r24
    1ab0:	e9 53       	subi	r30, 0x39	; 57
    1ab2:	fb 4f       	sbci	r31, 0xFB	; 251
    1ab4:	29 e0       	ldi	r18, 0x09	; 9
    1ab6:	22 83       	std	Z+2, r18	; 0x02
    1ab8:	5a c0       	rjmp	.+180    	; 0x1b6e <_Z16downFuncZselMenuP9CMenuItem+0x188>
    1aba:	e0 91 29 05 	lds	r30, 0x0529
    1abe:	f0 91 2a 05 	lds	r31, 0x052A
    1ac2:	e8 5b       	subi	r30, 0xB8	; 184
    1ac4:	ff 4f       	sbci	r31, 0xFF	; 255
    1ac6:	20 81       	ld	r18, Z
    1ac8:	8d ec       	ldi	r24, 0xCD	; 205
    1aca:	28 9f       	mul	r18, r24
    1acc:	81 2d       	mov	r24, r1
    1ace:	11 24       	eor	r1, r1
    1ad0:	86 95       	lsr	r24
    1ad2:	86 95       	lsr	r24
    1ad4:	90 e0       	ldi	r25, 0x00	; 0
    1ad6:	fc 01       	movw	r30, r24
    1ad8:	ee 0f       	add	r30, r30
    1ada:	ff 1f       	adc	r31, r31
    1adc:	ea 5f       	subi	r30, 0xFA	; 250
    1ade:	fe 4f       	sbci	r31, 0xFE	; 254
    1ae0:	01 90       	ld	r0, Z+
    1ae2:	f0 81       	ld	r31, Z
    1ae4:	e0 2d       	mov	r30, r0
    1ae6:	40 81       	ld	r20, Z
    1ae8:	51 81       	ldd	r21, Z+1	; 0x01
    1aea:	24 30       	cpi	r18, 0x04	; 4
    1aec:	29 f4       	brne	.+10     	; 0x1af8 <_Z16downFuncZselMenuP9CMenuItem+0x112>
    1aee:	41 50       	subi	r20, 0x01	; 1
    1af0:	51 09       	sbc	r21, r1
    1af2:	51 83       	std	Z+1, r21	; 0x01
    1af4:	40 83       	st	Z, r20
    1af6:	2e c0       	rjmp	.+92     	; 0x1b54 <_Z16downFuncZselMenuP9CMenuItem+0x16e>
    1af8:	30 e0       	ldi	r19, 0x00	; 0
    1afa:	20 95       	com	r18
    1afc:	30 95       	com	r19
    1afe:	23 70       	andi	r18, 0x03	; 3
    1b00:	33 27       	eor	r19, r19
    1b02:	22 0f       	add	r18, r18
    1b04:	33 1f       	adc	r19, r19
    1b06:	22 0f       	add	r18, r18
    1b08:	33 1f       	adc	r19, r19
    1b0a:	6f e0       	ldi	r22, 0x0F	; 15
    1b0c:	70 e0       	ldi	r23, 0x00	; 0
    1b0e:	02 2e       	mov	r0, r18
    1b10:	02 c0       	rjmp	.+4      	; 0x1b16 <_Z16downFuncZselMenuP9CMenuItem+0x130>
    1b12:	66 0f       	add	r22, r22
    1b14:	77 1f       	adc	r23, r23
    1b16:	0a 94       	dec	r0
    1b18:	e2 f7       	brpl	.-8      	; 0x1b12 <_Z16downFuncZselMenuP9CMenuItem+0x12c>
    1b1a:	db 01       	movw	r26, r22
    1b1c:	a4 23       	and	r26, r20
    1b1e:	b5 23       	and	r27, r21
    1b20:	02 2e       	mov	r0, r18
    1b22:	02 c0       	rjmp	.+4      	; 0x1b28 <_Z16downFuncZselMenuP9CMenuItem+0x142>
    1b24:	b6 95       	lsr	r27
    1b26:	a7 95       	ror	r26
    1b28:	0a 94       	dec	r0
    1b2a:	e2 f7       	brpl	.-8      	; 0x1b24 <_Z16downFuncZselMenuP9CMenuItem+0x13e>
    1b2c:	aa 23       	and	r26, r26
    1b2e:	11 f0       	breq	.+4      	; 0x1b34 <_Z16downFuncZselMenuP9CMenuItem+0x14e>
    1b30:	a1 50       	subi	r26, 0x01	; 1
    1b32:	01 c0       	rjmp	.+2      	; 0x1b36 <_Z16downFuncZselMenuP9CMenuItem+0x150>
    1b34:	af e0       	ldi	r26, 0x0F	; 15
    1b36:	b0 e0       	ldi	r27, 0x00	; 0
    1b38:	ed 01       	movw	r28, r26
    1b3a:	02 c0       	rjmp	.+4      	; 0x1b40 <_Z16downFuncZselMenuP9CMenuItem+0x15a>
    1b3c:	cc 0f       	add	r28, r28
    1b3e:	dd 1f       	adc	r29, r29
    1b40:	2a 95       	dec	r18
    1b42:	e2 f7       	brpl	.-8      	; 0x1b3c <_Z16downFuncZselMenuP9CMenuItem+0x156>
    1b44:	60 95       	com	r22
    1b46:	70 95       	com	r23
    1b48:	46 23       	and	r20, r22
    1b4a:	57 23       	and	r21, r23
    1b4c:	4c 0f       	add	r20, r28
    1b4e:	5d 1f       	adc	r21, r29
    1b50:	51 83       	std	Z+1, r21	; 0x01
    1b52:	40 83       	st	Z, r20
    1b54:	fc 01       	movw	r30, r24
    1b56:	e0 50       	subi	r30, 0x00	; 0
    1b58:	ff 4f       	sbci	r31, 0xFF	; 255
    1b5a:	60 81       	ld	r22, Z
    1b5c:	81 e2       	ldi	r24, 0x21	; 33
    1b5e:	95 e0       	ldi	r25, 0x05	; 5
    1b60:	0e 94 ea 1b 	call	0x37d4	; 0x37d4 <_Z12SetZselParamP9ZSELPARAM7regAddr>
    1b64:	60 e0       	ldi	r22, 0x00	; 0
    1b66:	70 e0       	ldi	r23, 0x00	; 0
    1b68:	87 ec       	ldi	r24, 0xC7	; 199
    1b6a:	94 e0       	ldi	r25, 0x04	; 4
    1b6c:	3e de       	rcall	.-900    	; 0x17ea <_Z17SaveStateToEEPROMP12StateOfPlatePv>
    1b6e:	80 91 29 05 	lds	r24, 0x0529
    1b72:	90 91 2a 05 	lds	r25, 0x052A
    1b76:	60 dc       	rcall	.-1856   	; 0x1438 <_ZN9CMenuItem4drawEv>
    1b78:	12 c0       	rjmp	.+36     	; 0x1b9e <_Z16downFuncZselMenuP9CMenuItem+0x1b8>
    1b7a:	46 2f       	mov	r20, r22
    1b7c:	40 7f       	andi	r20, 0xF0	; 240
    1b7e:	50 e0       	ldi	r21, 0x00	; 0
    1b80:	24 e0       	ldi	r18, 0x04	; 4
    1b82:	51 cf       	rjmp	.-350    	; 0x1a26 <_Z16downFuncZselMenuP9CMenuItem+0x40>
    1b84:	46 2f       	mov	r20, r22
    1b86:	4f 70       	andi	r20, 0x0F	; 15
    1b88:	50 e0       	ldi	r21, 0x00	; 0
    1b8a:	20 e0       	ldi	r18, 0x00	; 0
    1b8c:	4c cf       	rjmp	.-360    	; 0x1a26 <_Z16downFuncZselMenuP9CMenuItem+0x40>
    1b8e:	60 7f       	andi	r22, 0xF0	; 240
    1b90:	30 e0       	ldi	r19, 0x00	; 0
    1b92:	40 e0       	ldi	r20, 0x00	; 0
    1b94:	58 cf       	rjmp	.-336    	; 0x1a46 <_Z16downFuncZselMenuP9CMenuItem+0x60>
    1b96:	6f 70       	andi	r22, 0x0F	; 15
    1b98:	30 e0       	ldi	r19, 0x00	; 0
    1b9a:	44 e0       	ldi	r20, 0x04	; 4
    1b9c:	54 cf       	rjmp	.-344    	; 0x1a46 <_Z16downFuncZselMenuP9CMenuItem+0x60>
    1b9e:	df 91       	pop	r29
    1ba0:	cf 91       	pop	r28
    1ba2:	08 95       	ret

00001ba4 <_Z19ReadStateFromEEPROMP12StateOfPlatePv>:
    1ba4:	42 e6       	ldi	r20, 0x62	; 98
    1ba6:	50 e0       	ldi	r21, 0x00	; 0
    1ba8:	0c 94 bd 1d 	jmp	0x3b7a	; 0x3b7a <__eerd_block_m128>
    1bac:	08 95       	ret

00001bae <_Z11Str2DrawStrPhS_S_>:
    1bae:	0f 93       	push	r16
    1bb0:	1f 93       	push	r17
    1bb2:	cf 93       	push	r28
    1bb4:	df 93       	push	r29
    1bb6:	8b 01       	movw	r16, r22
    1bb8:	ea 01       	movw	r28, r20
    1bba:	29 e2       	ldi	r18, 0x29	; 41
    1bbc:	fa 01       	movw	r30, r20
    1bbe:	11 92       	st	Z+, r1
    1bc0:	2a 95       	dec	r18
    1bc2:	e9 f7       	brne	.-6      	; 0x1bbe <_Z11Str2DrawStrPhS_S_+0x10>
    1bc4:	fc 01       	movw	r30, r24
    1bc6:	01 90       	ld	r0, Z+
    1bc8:	00 20       	and	r0, r0
    1bca:	e9 f7       	brne	.-6      	; 0x1bc6 <_Z11Str2DrawStrPhS_S_+0x18>
    1bcc:	31 97       	sbiw	r30, 0x01	; 1
    1bce:	af 01       	movw	r20, r30
    1bd0:	48 1b       	sub	r20, r24
    1bd2:	59 0b       	sbc	r21, r25
    1bd4:	bc 01       	movw	r22, r24
    1bd6:	ce 01       	movw	r24, r28
    1bd8:	0e 94 a9 1d 	call	0x3b52	; 0x3b52 <memcpy>
    1bdc:	f8 01       	movw	r30, r16
    1bde:	01 90       	ld	r0, Z+
    1be0:	00 20       	and	r0, r0
    1be2:	e9 f7       	brne	.-6      	; 0x1bde <_Z11Str2DrawStrPhS_S_+0x30>
    1be4:	31 97       	sbiw	r30, 0x01	; 1
    1be6:	af 01       	movw	r20, r30
    1be8:	40 1b       	sub	r20, r16
    1bea:	51 0b       	sbc	r21, r17
    1bec:	b8 01       	movw	r22, r16
    1bee:	ce 01       	movw	r24, r28
    1bf0:	44 96       	adiw	r24, 0x14	; 20
    1bf2:	0e 94 a9 1d 	call	0x3b52	; 0x3b52 <memcpy>
    1bf6:	df 91       	pop	r29
    1bf8:	cf 91       	pop	r28
    1bfa:	1f 91       	pop	r17
    1bfc:	0f 91       	pop	r16
    1bfe:	08 95       	ret

00001c00 <_Z9DrawOnLCDPh>:
    1c00:	cf 93       	push	r28
    1c02:	df 93       	push	r29
    1c04:	ec 01       	movw	r28, r24
    1c06:	0e 94 b6 04 	call	0x96c	; 0x96c <_Z9LCD_Clearv>
    1c0a:	ce 01       	movw	r24, r28
    1c0c:	0e 94 26 05 	call	0xa4c	; 0xa4c <_Z25LCD_DisplayDrawLongStringPc>
    1c10:	80 91 29 05 	lds	r24, 0x0529
    1c14:	90 91 2a 05 	lds	r25, 0x052A
    1c18:	9f db       	rcall	.-2242   	; 0x1358 <_ZN9CMenuItem17getCursorPositionEv>
    1c1a:	c9 2f       	mov	r28, r25
    1c1c:	80 91 29 05 	lds	r24, 0x0529
    1c20:	90 91 2a 05 	lds	r25, 0x052A
    1c24:	99 db       	rcall	.-2254   	; 0x1358 <_ZN9CMenuItem17getCursorPositionEv>
    1c26:	6c 2f       	mov	r22, r28
    1c28:	0e 94 f9 04 	call	0x9f2	; 0x9f2 <_Z10LCD_Cursorcc>
    1c2c:	0e 94 23 05 	call	0xa46	; 0xa46 <_Z13LCD_Cursor_Onv>
    1c30:	df 91       	pop	r29
    1c32:	cf 91       	pop	r28
    1c34:	08 95       	ret

00001c36 <_Z16drawFuncMainMenuP9CMenuItem>:
    1c36:	cf 93       	push	r28
    1c38:	df 93       	push	r29
    1c3a:	ec 01       	movw	r28, r24
    1c3c:	6f 89       	ldd	r22, Y+23	; 0x17
    1c3e:	78 8d       	ldd	r23, Y+24	; 0x18
    1c40:	fb 01       	movw	r30, r22
    1c42:	01 90       	ld	r0, Z+
    1c44:	00 20       	and	r0, r0
    1c46:	e9 f7       	brne	.-6      	; 0x1c42 <_Z16drawFuncMainMenuP9CMenuItem+0xc>
    1c48:	31 97       	sbiw	r30, 0x01	; 1
    1c4a:	af 01       	movw	r20, r30
    1c4c:	46 1b       	sub	r20, r22
    1c4e:	57 0b       	sbc	r21, r23
    1c50:	45 31       	cpi	r20, 0x15	; 21
    1c52:	51 05       	cpc	r21, r1
    1c54:	10 f0       	brcs	.+4      	; 0x1c5a <_Z16drawFuncMainMenuP9CMenuItem+0x24>
    1c56:	44 e1       	ldi	r20, 0x14	; 20
    1c58:	50 e0       	ldi	r21, 0x00	; 0
    1c5a:	80 e5       	ldi	r24, 0x50	; 80
    1c5c:	91 e0       	ldi	r25, 0x01	; 1
    1c5e:	0e 94 a9 1d 	call	0x3b52	; 0x3b52 <memcpy>
    1c62:	69 8d       	ldd	r22, Y+25	; 0x19
    1c64:	7a 8d       	ldd	r23, Y+26	; 0x1a
    1c66:	fb 01       	movw	r30, r22
    1c68:	01 90       	ld	r0, Z+
    1c6a:	00 20       	and	r0, r0
    1c6c:	e9 f7       	brne	.-6      	; 0x1c68 <_Z16drawFuncMainMenuP9CMenuItem+0x32>
    1c6e:	31 97       	sbiw	r30, 0x01	; 1
    1c70:	af 01       	movw	r20, r30
    1c72:	46 1b       	sub	r20, r22
    1c74:	57 0b       	sbc	r21, r23
    1c76:	45 31       	cpi	r20, 0x15	; 21
    1c78:	51 05       	cpc	r21, r1
    1c7a:	10 f0       	brcs	.+4      	; 0x1c80 <_Z16drawFuncMainMenuP9CMenuItem+0x4a>
    1c7c:	44 e1       	ldi	r20, 0x14	; 20
    1c7e:	50 e0       	ldi	r21, 0x00	; 0
    1c80:	8b e3       	ldi	r24, 0x3B	; 59
    1c82:	91 e0       	ldi	r25, 0x01	; 1
    1c84:	0e 94 a9 1d 	call	0x3b52	; 0x3b52 <memcpy>
    1c88:	80 91 c7 04 	lds	r24, 0x04C7
    1c8c:	81 11       	cpse	r24, r1
    1c8e:	0d c0       	rjmp	.+26     	; 0x1caa <_Z16drawFuncMainMenuP9CMenuItem+0x74>
    1c90:	80 91 1a 01 	lds	r24, 0x011A
    1c94:	90 91 1b 01 	lds	r25, 0x011B
    1c98:	a0 91 1c 01 	lds	r26, 0x011C
    1c9c:	80 93 3b 01 	sts	0x013B, r24
    1ca0:	90 93 3c 01 	sts	0x013C, r25
    1ca4:	a0 93 3d 01 	sts	0x013D, r26
    1ca8:	0c c0       	rjmp	.+24     	; 0x1cc2 <_Z16drawFuncMainMenuP9CMenuItem+0x8c>
    1caa:	80 91 1e 01 	lds	r24, 0x011E
    1cae:	90 91 1f 01 	lds	r25, 0x011F
    1cb2:	a0 91 20 01 	lds	r26, 0x0120
    1cb6:	80 93 3b 01 	sts	0x013B, r24
    1cba:	90 93 3c 01 	sts	0x013C, r25
    1cbe:	a0 93 3d 01 	sts	0x013D, r26
    1cc2:	68 e5       	ldi	r22, 0x58	; 88
    1cc4:	70 e0       	ldi	r23, 0x00	; 0
    1cc6:	8b e3       	ldi	r24, 0x3B	; 59
    1cc8:	91 e0       	ldi	r25, 0x01	; 1
    1cca:	0e 94 b2 1d 	call	0x3b64	; 0x3b64 <strchr>
    1cce:	20 91 c8 04 	lds	r18, 0x04C8
    1cd2:	30 e0       	ldi	r19, 0x00	; 0
    1cd4:	f9 01       	movw	r30, r18
    1cd6:	ee 0f       	add	r30, r30
    1cd8:	ff 1f       	adc	r31, r31
    1cda:	2e 0f       	add	r18, r30
    1cdc:	3f 1f       	adc	r19, r31
    1cde:	f9 01       	movw	r30, r18
    1ce0:	ec 5e       	subi	r30, 0xEC	; 236
    1ce2:	fe 4f       	sbci	r31, 0xFE	; 254
    1ce4:	20 81       	ld	r18, Z
    1ce6:	31 81       	ldd	r19, Z+1	; 0x01
    1ce8:	fc 01       	movw	r30, r24
    1cea:	31 83       	std	Z+1, r19	; 0x01
    1cec:	20 83       	st	Z, r18
    1cee:	20 e0       	ldi	r18, 0x00	; 0
    1cf0:	40 e0       	ldi	r20, 0x00	; 0
    1cf2:	a0 e5       	ldi	r26, 0x50	; 80
    1cf4:	b1 e0       	ldi	r27, 0x01	; 1
    1cf6:	15 c0       	rjmp	.+42     	; 0x1d22 <_Z16drawFuncMainMenuP9CMenuItem+0xec>
    1cf8:	82 2f       	mov	r24, r18
    1cfa:	90 e0       	ldi	r25, 0x00	; 0
    1cfc:	fc 01       	movw	r30, r24
    1cfe:	e0 5b       	subi	r30, 0xB0	; 176
    1d00:	fe 4f       	sbci	r31, 0xFE	; 254
    1d02:	30 81       	ld	r19, Z
    1d04:	38 35       	cpi	r19, 0x58	; 88
    1d06:	61 f4       	brne	.+24     	; 0x1d20 <_Z16drawFuncMainMenuP9CMenuItem+0xea>
    1d08:	ef 01       	movw	r28, r30
    1d0a:	e4 2f       	mov	r30, r20
    1d0c:	f0 e0       	ldi	r31, 0x00	; 0
    1d0e:	e9 53       	subi	r30, 0x39	; 57
    1d10:	fb 4f       	sbci	r31, 0xFB	; 251
    1d12:	e2 81       	ldd	r30, Z+2	; 0x02
    1d14:	f0 e0       	ldi	r31, 0x00	; 0
    1d16:	e7 5d       	subi	r30, 0xD7	; 215
    1d18:	fe 4f       	sbci	r31, 0xFE	; 254
    1d1a:	30 81       	ld	r19, Z
    1d1c:	38 83       	st	Y, r19
    1d1e:	4f 5f       	subi	r20, 0xFF	; 255
    1d20:	2f 5f       	subi	r18, 0xFF	; 255
    1d22:	fd 01       	movw	r30, r26
    1d24:	01 90       	ld	r0, Z+
    1d26:	00 20       	and	r0, r0
    1d28:	e9 f7       	brne	.-6      	; 0x1d24 <_Z16drawFuncMainMenuP9CMenuItem+0xee>
    1d2a:	31 97       	sbiw	r30, 0x01	; 1
    1d2c:	e0 55       	subi	r30, 0x50	; 80
    1d2e:	f1 40       	sbci	r31, 0x01	; 1
    1d30:	82 2f       	mov	r24, r18
    1d32:	90 e0       	ldi	r25, 0x00	; 0
    1d34:	8e 17       	cp	r24, r30
    1d36:	9f 07       	cpc	r25, r31
    1d38:	f8 f2       	brcs	.-66     	; 0x1cf8 <_Z16drawFuncMainMenuP9CMenuItem+0xc2>
    1d3a:	80 91 20 05 	lds	r24, 0x0520
    1d3e:	81 11       	cpse	r24, r1
    1d40:	0b c0       	rjmp	.+22     	; 0x1d58 <_Z16drawFuncMainMenuP9CMenuItem+0x122>
    1d42:	68 e5       	ldi	r22, 0x58	; 88
    1d44:	70 e0       	ldi	r23, 0x00	; 0
    1d46:	8b e3       	ldi	r24, 0x3B	; 59
    1d48:	91 e0       	ldi	r25, 0x01	; 1
    1d4a:	0e 94 b2 1d 	call	0x3b64	; 0x3b64 <strchr>
    1d4e:	20 91 12 01 	lds	r18, 0x0112
    1d52:	fc 01       	movw	r30, r24
    1d54:	20 83       	st	Z, r18
    1d56:	0a c0       	rjmp	.+20     	; 0x1d6c <_Z16drawFuncMainMenuP9CMenuItem+0x136>
    1d58:	68 e5       	ldi	r22, 0x58	; 88
    1d5a:	70 e0       	ldi	r23, 0x00	; 0
    1d5c:	8b e3       	ldi	r24, 0x3B	; 59
    1d5e:	91 e0       	ldi	r25, 0x01	; 1
    1d60:	0e 94 b2 1d 	call	0x3b64	; 0x3b64 <strchr>
    1d64:	20 91 13 01 	lds	r18, 0x0113
    1d68:	fc 01       	movw	r30, r24
    1d6a:	20 83       	st	Z, r18
    1d6c:	45 e6       	ldi	r20, 0x65	; 101
    1d6e:	51 e0       	ldi	r21, 0x01	; 1
    1d70:	6b e3       	ldi	r22, 0x3B	; 59
    1d72:	71 e0       	ldi	r23, 0x01	; 1
    1d74:	80 e5       	ldi	r24, 0x50	; 80
    1d76:	91 e0       	ldi	r25, 0x01	; 1
    1d78:	1a df       	rcall	.-460    	; 0x1bae <_Z11Str2DrawStrPhS_S_>
    1d7a:	85 e6       	ldi	r24, 0x65	; 101
    1d7c:	91 e0       	ldi	r25, 0x01	; 1
    1d7e:	40 df       	rcall	.-384    	; 0x1c00 <_Z9DrawOnLCDPh>
    1d80:	df 91       	pop	r29
    1d82:	cf 91       	pop	r28
    1d84:	08 95       	ret

00001d86 <_Z15drawFuncPrkMenuP9CMenuItem>:
    1d86:	0f 93       	push	r16
    1d88:	1f 93       	push	r17
    1d8a:	cf 93       	push	r28
    1d8c:	df 93       	push	r29
    1d8e:	ec 01       	movw	r28, r24
    1d90:	6f 89       	ldd	r22, Y+23	; 0x17
    1d92:	78 8d       	ldd	r23, Y+24	; 0x18
    1d94:	fb 01       	movw	r30, r22
    1d96:	01 90       	ld	r0, Z+
    1d98:	00 20       	and	r0, r0
    1d9a:	e9 f7       	brne	.-6      	; 0x1d96 <_Z15drawFuncPrkMenuP9CMenuItem+0x10>
    1d9c:	31 97       	sbiw	r30, 0x01	; 1
    1d9e:	af 01       	movw	r20, r30
    1da0:	46 1b       	sub	r20, r22
    1da2:	57 0b       	sbc	r21, r23
    1da4:	45 31       	cpi	r20, 0x15	; 21
    1da6:	51 05       	cpc	r21, r1
    1da8:	10 f0       	brcs	.+4      	; 0x1dae <_Z15drawFuncPrkMenuP9CMenuItem+0x28>
    1daa:	44 e1       	ldi	r20, 0x14	; 20
    1dac:	50 e0       	ldi	r21, 0x00	; 0
    1dae:	80 e5       	ldi	r24, 0x50	; 80
    1db0:	91 e0       	ldi	r25, 0x01	; 1
    1db2:	0e 94 a9 1d 	call	0x3b52	; 0x3b52 <memcpy>
    1db6:	69 8d       	ldd	r22, Y+25	; 0x19
    1db8:	7a 8d       	ldd	r23, Y+26	; 0x1a
    1dba:	fb 01       	movw	r30, r22
    1dbc:	01 90       	ld	r0, Z+
    1dbe:	00 20       	and	r0, r0
    1dc0:	e9 f7       	brne	.-6      	; 0x1dbc <_Z15drawFuncPrkMenuP9CMenuItem+0x36>
    1dc2:	31 97       	sbiw	r30, 0x01	; 1
    1dc4:	af 01       	movw	r20, r30
    1dc6:	46 1b       	sub	r20, r22
    1dc8:	57 0b       	sbc	r21, r23
    1dca:	45 31       	cpi	r20, 0x15	; 21
    1dcc:	51 05       	cpc	r21, r1
    1dce:	10 f0       	brcs	.+4      	; 0x1dd4 <_Z15drawFuncPrkMenuP9CMenuItem+0x4e>
    1dd0:	44 e1       	ldi	r20, 0x14	; 20
    1dd2:	50 e0       	ldi	r21, 0x00	; 0
    1dd4:	8b e3       	ldi	r24, 0x3B	; 59
    1dd6:	91 e0       	ldi	r25, 0x01	; 1
    1dd8:	0e 94 a9 1d 	call	0x3b52	; 0x3b52 <memcpy>
    1ddc:	68 e5       	ldi	r22, 0x58	; 88
    1dde:	70 e0       	ldi	r23, 0x00	; 0
    1de0:	80 e5       	ldi	r24, 0x50	; 80
    1de2:	91 e0       	ldi	r25, 0x01	; 1
    1de4:	0e 94 b2 1d 	call	0x3b64	; 0x3b64 <strchr>
    1de8:	00 91 10 04 	lds	r16, 0x0410
    1dec:	10 e0       	ldi	r17, 0x00	; 0
    1dee:	f8 01       	movw	r30, r16
    1df0:	e7 5d       	subi	r30, 0xD7	; 215
    1df2:	fe 4f       	sbci	r31, 0xFE	; 254
    1df4:	20 81       	ld	r18, Z
    1df6:	fc 01       	movw	r30, r24
    1df8:	20 83       	st	Z, r18
    1dfa:	68 e5       	ldi	r22, 0x58	; 88
    1dfc:	70 e0       	ldi	r23, 0x00	; 0
    1dfe:	80 e5       	ldi	r24, 0x50	; 80
    1e00:	91 e0       	ldi	r25, 0x01	; 1
    1e02:	0e 94 b2 1d 	call	0x3b64	; 0x3b64 <strchr>
    1e06:	00 0f       	add	r16, r16
    1e08:	11 1f       	adc	r17, r17
    1e0a:	e8 01       	movw	r28, r16
    1e0c:	c7 5d       	subi	r28, 0xD7	; 215
    1e0e:	de 4f       	sbci	r29, 0xFE	; 254
    1e10:	28 81       	ld	r18, Y
    1e12:	fc 01       	movw	r30, r24
    1e14:	20 83       	st	Z, r18
    1e16:	68 e5       	ldi	r22, 0x58	; 88
    1e18:	70 e0       	ldi	r23, 0x00	; 0
    1e1a:	8b e3       	ldi	r24, 0x3B	; 59
    1e1c:	91 e0       	ldi	r25, 0x01	; 1
    1e1e:	0e 94 b2 1d 	call	0x3b64	; 0x3b64 <strchr>
    1e22:	29 81       	ldd	r18, Y+1	; 0x01
    1e24:	fc 01       	movw	r30, r24
    1e26:	20 83       	st	Z, r18
    1e28:	c0 e0       	ldi	r28, 0x00	; 0
    1e2a:	d0 e0       	ldi	r29, 0x00	; 0
    1e2c:	a0 e5       	ldi	r26, 0x50	; 80
    1e2e:	b1 e0       	ldi	r27, 0x01	; 1
    1e30:	a8 01       	movw	r20, r16
    1e32:	44 0f       	add	r20, r20
    1e34:	55 1f       	adc	r21, r21
    1e36:	44 0f       	add	r20, r20
    1e38:	55 1f       	adc	r21, r21
    1e3a:	49 53       	subi	r20, 0x39	; 57
    1e3c:	5b 4f       	sbci	r21, 0xFB	; 251
    1e3e:	98 01       	movw	r18, r16
    1e40:	22 0f       	add	r18, r18
    1e42:	33 1f       	adc	r19, r19
    1e44:	22 0f       	add	r18, r18
    1e46:	33 1f       	adc	r19, r19
    1e48:	25 53       	subi	r18, 0x35	; 53
    1e4a:	3b 4f       	sbci	r19, 0xFB	; 251
    1e4c:	10 e2       	ldi	r17, 0x20	; 32
    1e4e:	5e c0       	rjmp	.+188    	; 0x1f0c <_Z15drawFuncPrkMenuP9CMenuItem+0x186>
    1e50:	8c 2f       	mov	r24, r28
    1e52:	90 e0       	ldi	r25, 0x00	; 0
    1e54:	fc 01       	movw	r30, r24
    1e56:	e0 5b       	subi	r30, 0xB0	; 176
    1e58:	fe 4f       	sbci	r31, 0xFE	; 254
    1e5a:	60 81       	ld	r22, Z
    1e5c:	68 35       	cpi	r22, 0x58	; 88
    1e5e:	09 f0       	breq	.+2      	; 0x1e62 <_Z15drawFuncPrkMenuP9CMenuItem+0xdc>
    1e60:	40 c0       	rjmp	.+128    	; 0x1ee2 <_Z15drawFuncPrkMenuP9CMenuItem+0x15c>
    1e62:	d0 fd       	sbrc	r29, 0
    1e64:	20 c0       	rjmp	.+64     	; 0x1ea6 <_Z15drawFuncPrkMenuP9CMenuItem+0x120>
    1e66:	6d 2f       	mov	r22, r29
    1e68:	66 95       	lsr	r22
    1e6a:	70 e0       	ldi	r23, 0x00	; 0
    1e6c:	fa 01       	movw	r30, r20
    1e6e:	e6 0f       	add	r30, r22
    1e70:	f7 1f       	adc	r31, r23
    1e72:	e1 85       	ldd	r30, Z+9	; 0x09
    1e74:	e2 95       	swap	r30
    1e76:	ef 70       	andi	r30, 0x0F	; 15
    1e78:	f0 e0       	ldi	r31, 0x00	; 0
    1e7a:	e7 5d       	subi	r30, 0xD7	; 215
    1e7c:	fe 4f       	sbci	r31, 0xFE	; 254
    1e7e:	00 81       	ld	r16, Z
    1e80:	fc 01       	movw	r30, r24
    1e82:	e0 5b       	subi	r30, 0xB0	; 176
    1e84:	fe 4f       	sbci	r31, 0xFE	; 254
    1e86:	00 83       	st	Z, r16
    1e88:	f9 01       	movw	r30, r18
    1e8a:	e6 0f       	add	r30, r22
    1e8c:	f7 1f       	adc	r31, r23
    1e8e:	e1 85       	ldd	r30, Z+9	; 0x09
    1e90:	e2 95       	swap	r30
    1e92:	ef 70       	andi	r30, 0x0F	; 15
    1e94:	f0 e0       	ldi	r31, 0x00	; 0
    1e96:	e7 5d       	subi	r30, 0xD7	; 215
    1e98:	fe 4f       	sbci	r31, 0xFE	; 254
    1e9a:	60 81       	ld	r22, Z
    1e9c:	fc 01       	movw	r30, r24
    1e9e:	e5 5c       	subi	r30, 0xC5	; 197
    1ea0:	fe 4f       	sbci	r31, 0xFE	; 254
    1ea2:	60 83       	st	Z, r22
    1ea4:	1d c0       	rjmp	.+58     	; 0x1ee0 <_Z15drawFuncPrkMenuP9CMenuItem+0x15a>
    1ea6:	6d 2f       	mov	r22, r29
    1ea8:	66 95       	lsr	r22
    1eaa:	70 e0       	ldi	r23, 0x00	; 0
    1eac:	fa 01       	movw	r30, r20
    1eae:	e6 0f       	add	r30, r22
    1eb0:	f7 1f       	adc	r31, r23
    1eb2:	e1 85       	ldd	r30, Z+9	; 0x09
    1eb4:	ef 70       	andi	r30, 0x0F	; 15
    1eb6:	f0 e0       	ldi	r31, 0x00	; 0
    1eb8:	e7 5d       	subi	r30, 0xD7	; 215
    1eba:	fe 4f       	sbci	r31, 0xFE	; 254
    1ebc:	00 81       	ld	r16, Z
    1ebe:	fc 01       	movw	r30, r24
    1ec0:	e0 5b       	subi	r30, 0xB0	; 176
    1ec2:	fe 4f       	sbci	r31, 0xFE	; 254
    1ec4:	00 83       	st	Z, r16
    1ec6:	f9 01       	movw	r30, r18
    1ec8:	e6 0f       	add	r30, r22
    1eca:	f7 1f       	adc	r31, r23
    1ecc:	e1 85       	ldd	r30, Z+9	; 0x09
    1ece:	ef 70       	andi	r30, 0x0F	; 15
    1ed0:	f0 e0       	ldi	r31, 0x00	; 0
    1ed2:	e7 5d       	subi	r30, 0xD7	; 215
    1ed4:	fe 4f       	sbci	r31, 0xFE	; 254
    1ed6:	60 81       	ld	r22, Z
    1ed8:	fc 01       	movw	r30, r24
    1eda:	e5 5c       	subi	r30, 0xC5	; 197
    1edc:	fe 4f       	sbci	r31, 0xFE	; 254
    1ede:	60 83       	st	Z, r22
    1ee0:	df 5f       	subi	r29, 0xFF	; 255
    1ee2:	fc 01       	movw	r30, r24
    1ee4:	e0 5b       	subi	r30, 0xB0	; 176
    1ee6:	fe 4f       	sbci	r31, 0xFE	; 254
    1ee8:	60 81       	ld	r22, Z
    1eea:	60 34       	cpi	r22, 0x40	; 64
    1eec:	21 f4       	brne	.+8      	; 0x1ef6 <_Z15drawFuncPrkMenuP9CMenuItem+0x170>
    1eee:	fc 01       	movw	r30, r24
    1ef0:	e0 5b       	subi	r30, 0xB0	; 176
    1ef2:	fe 4f       	sbci	r31, 0xFE	; 254
    1ef4:	10 83       	st	Z, r17
    1ef6:	fc 01       	movw	r30, r24
    1ef8:	e5 5c       	subi	r30, 0xC5	; 197
    1efa:	fe 4f       	sbci	r31, 0xFE	; 254
    1efc:	60 81       	ld	r22, Z
    1efe:	60 34       	cpi	r22, 0x40	; 64
    1f00:	21 f4       	brne	.+8      	; 0x1f0a <_Z15drawFuncPrkMenuP9CMenuItem+0x184>
    1f02:	fc 01       	movw	r30, r24
    1f04:	e5 5c       	subi	r30, 0xC5	; 197
    1f06:	fe 4f       	sbci	r31, 0xFE	; 254
    1f08:	10 83       	st	Z, r17
    1f0a:	cf 5f       	subi	r28, 0xFF	; 255
    1f0c:	fd 01       	movw	r30, r26
    1f0e:	01 90       	ld	r0, Z+
    1f10:	00 20       	and	r0, r0
    1f12:	e9 f7       	brne	.-6      	; 0x1f0e <_Z15drawFuncPrkMenuP9CMenuItem+0x188>
    1f14:	31 97       	sbiw	r30, 0x01	; 1
    1f16:	e0 55       	subi	r30, 0x50	; 80
    1f18:	f1 40       	sbci	r31, 0x01	; 1
    1f1a:	8c 2f       	mov	r24, r28
    1f1c:	90 e0       	ldi	r25, 0x00	; 0
    1f1e:	8e 17       	cp	r24, r30
    1f20:	9f 07       	cpc	r25, r31
    1f22:	08 f4       	brcc	.+2      	; 0x1f26 <_Z15drawFuncPrkMenuP9CMenuItem+0x1a0>
    1f24:	95 cf       	rjmp	.-214    	; 0x1e50 <_Z15drawFuncPrkMenuP9CMenuItem+0xca>
    1f26:	45 e6       	ldi	r20, 0x65	; 101
    1f28:	51 e0       	ldi	r21, 0x01	; 1
    1f2a:	6b e3       	ldi	r22, 0x3B	; 59
    1f2c:	71 e0       	ldi	r23, 0x01	; 1
    1f2e:	80 e5       	ldi	r24, 0x50	; 80
    1f30:	91 e0       	ldi	r25, 0x01	; 1
    1f32:	3d de       	rcall	.-902    	; 0x1bae <_Z11Str2DrawStrPhS_S_>
    1f34:	85 e6       	ldi	r24, 0x65	; 101
    1f36:	91 e0       	ldi	r25, 0x01	; 1
    1f38:	63 de       	rcall	.-826    	; 0x1c00 <_Z9DrawOnLCDPh>
    1f3a:	df 91       	pop	r29
    1f3c:	cf 91       	pop	r28
    1f3e:	1f 91       	pop	r17
    1f40:	0f 91       	pop	r16
    1f42:	08 95       	ret

00001f44 <_Z16drawFuncZselMenuP9CMenuItem>:
    1f44:	1f 93       	push	r17
    1f46:	cf 93       	push	r28
    1f48:	df 93       	push	r29
    1f4a:	ec 01       	movw	r28, r24
    1f4c:	6f 89       	ldd	r22, Y+23	; 0x17
    1f4e:	78 8d       	ldd	r23, Y+24	; 0x18
    1f50:	fb 01       	movw	r30, r22
    1f52:	01 90       	ld	r0, Z+
    1f54:	00 20       	and	r0, r0
    1f56:	e9 f7       	brne	.-6      	; 0x1f52 <_Z16drawFuncZselMenuP9CMenuItem+0xe>
    1f58:	31 97       	sbiw	r30, 0x01	; 1
    1f5a:	af 01       	movw	r20, r30
    1f5c:	46 1b       	sub	r20, r22
    1f5e:	57 0b       	sbc	r21, r23
    1f60:	45 31       	cpi	r20, 0x15	; 21
    1f62:	51 05       	cpc	r21, r1
    1f64:	10 f0       	brcs	.+4      	; 0x1f6a <_Z16drawFuncZselMenuP9CMenuItem+0x26>
    1f66:	44 e1       	ldi	r20, 0x14	; 20
    1f68:	50 e0       	ldi	r21, 0x00	; 0
    1f6a:	80 e5       	ldi	r24, 0x50	; 80
    1f6c:	91 e0       	ldi	r25, 0x01	; 1
    1f6e:	0e 94 a9 1d 	call	0x3b52	; 0x3b52 <memcpy>
    1f72:	69 8d       	ldd	r22, Y+25	; 0x19
    1f74:	7a 8d       	ldd	r23, Y+26	; 0x1a
    1f76:	fb 01       	movw	r30, r22
    1f78:	01 90       	ld	r0, Z+
    1f7a:	00 20       	and	r0, r0
    1f7c:	e9 f7       	brne	.-6      	; 0x1f78 <_Z16drawFuncZselMenuP9CMenuItem+0x34>
    1f7e:	31 97       	sbiw	r30, 0x01	; 1
    1f80:	af 01       	movw	r20, r30
    1f82:	46 1b       	sub	r20, r22
    1f84:	57 0b       	sbc	r21, r23
    1f86:	45 31       	cpi	r20, 0x15	; 21
    1f88:	51 05       	cpc	r21, r1
    1f8a:	10 f0       	brcs	.+4      	; 0x1f90 <_Z16drawFuncZselMenuP9CMenuItem+0x4c>
    1f8c:	44 e1       	ldi	r20, 0x14	; 20
    1f8e:	50 e0       	ldi	r21, 0x00	; 0
    1f90:	8b e3       	ldi	r24, 0x3B	; 59
    1f92:	91 e0       	ldi	r25, 0x01	; 1
    1f94:	0e 94 a9 1d 	call	0x3b52	; 0x3b52 <memcpy>
    1f98:	68 e5       	ldi	r22, 0x58	; 88
    1f9a:	70 e0       	ldi	r23, 0x00	; 0
    1f9c:	80 e5       	ldi	r24, 0x50	; 80
    1f9e:	91 e0       	ldi	r25, 0x01	; 1
    1fa0:	0e 94 b2 1d 	call	0x3b64	; 0x3b64 <strchr>
    1fa4:	c0 91 21 05 	lds	r28, 0x0521
    1fa8:	ac 2f       	mov	r26, r28
    1faa:	a2 95       	swap	r26
    1fac:	af 70       	andi	r26, 0x0F	; 15
    1fae:	b0 e0       	ldi	r27, 0x00	; 0
    1fb0:	a7 5d       	subi	r26, 0xD7	; 215
    1fb2:	be 4f       	sbci	r27, 0xFE	; 254
    1fb4:	2c 91       	ld	r18, X
    1fb6:	fc 01       	movw	r30, r24
    1fb8:	20 83       	st	Z, r18
    1fba:	68 e5       	ldi	r22, 0x58	; 88
    1fbc:	70 e0       	ldi	r23, 0x00	; 0
    1fbe:	80 e5       	ldi	r24, 0x50	; 80
    1fc0:	91 e0       	ldi	r25, 0x01	; 1
    1fc2:	0e 94 b2 1d 	call	0x3b64	; 0x3b64 <strchr>
    1fc6:	cf 70       	andi	r28, 0x0F	; 15
    1fc8:	ec 2f       	mov	r30, r28
    1fca:	f0 e0       	ldi	r31, 0x00	; 0
    1fcc:	e7 5d       	subi	r30, 0xD7	; 215
    1fce:	fe 4f       	sbci	r31, 0xFE	; 254
    1fd0:	20 81       	ld	r18, Z
    1fd2:	fc 01       	movw	r30, r24
    1fd4:	20 83       	st	Z, r18
    1fd6:	68 e5       	ldi	r22, 0x58	; 88
    1fd8:	70 e0       	ldi	r23, 0x00	; 0
    1fda:	80 e5       	ldi	r24, 0x50	; 80
    1fdc:	91 e0       	ldi	r25, 0x01	; 1
    1fde:	0e 94 b2 1d 	call	0x3b64	; 0x3b64 <strchr>
    1fe2:	c0 91 22 05 	lds	r28, 0x0522
    1fe6:	ac 2f       	mov	r26, r28
    1fe8:	a2 95       	swap	r26
    1fea:	af 70       	andi	r26, 0x0F	; 15
    1fec:	b0 e0       	ldi	r27, 0x00	; 0
    1fee:	a7 5d       	subi	r26, 0xD7	; 215
    1ff0:	be 4f       	sbci	r27, 0xFE	; 254
    1ff2:	2c 91       	ld	r18, X
    1ff4:	fc 01       	movw	r30, r24
    1ff6:	20 83       	st	Z, r18
    1ff8:	68 e5       	ldi	r22, 0x58	; 88
    1ffa:	70 e0       	ldi	r23, 0x00	; 0
    1ffc:	80 e5       	ldi	r24, 0x50	; 80
    1ffe:	91 e0       	ldi	r25, 0x01	; 1
    2000:	0e 94 b2 1d 	call	0x3b64	; 0x3b64 <strchr>
    2004:	cf 70       	andi	r28, 0x0F	; 15
    2006:	ec 2f       	mov	r30, r28
    2008:	f0 e0       	ldi	r31, 0x00	; 0
    200a:	e7 5d       	subi	r30, 0xD7	; 215
    200c:	fe 4f       	sbci	r31, 0xFE	; 254
    200e:	20 81       	ld	r18, Z
    2010:	fc 01       	movw	r30, r24
    2012:	20 83       	st	Z, r18
    2014:	68 e5       	ldi	r22, 0x58	; 88
    2016:	70 e0       	ldi	r23, 0x00	; 0
    2018:	80 e5       	ldi	r24, 0x50	; 80
    201a:	91 e0       	ldi	r25, 0x01	; 1
    201c:	0e 94 b2 1d 	call	0x3b64	; 0x3b64 <strchr>
    2020:	c0 91 23 05 	lds	r28, 0x0523
    2024:	ac 2f       	mov	r26, r28
    2026:	a2 95       	swap	r26
    2028:	af 70       	andi	r26, 0x0F	; 15
    202a:	b0 e0       	ldi	r27, 0x00	; 0
    202c:	a7 5d       	subi	r26, 0xD7	; 215
    202e:	be 4f       	sbci	r27, 0xFE	; 254
    2030:	2c 91       	ld	r18, X
    2032:	fc 01       	movw	r30, r24
    2034:	20 83       	st	Z, r18
    2036:	68 e5       	ldi	r22, 0x58	; 88
    2038:	70 e0       	ldi	r23, 0x00	; 0
    203a:	80 e5       	ldi	r24, 0x50	; 80
    203c:	91 e0       	ldi	r25, 0x01	; 1
    203e:	0e 94 b2 1d 	call	0x3b64	; 0x3b64 <strchr>
    2042:	cf 70       	andi	r28, 0x0F	; 15
    2044:	ec 2f       	mov	r30, r28
    2046:	f0 e0       	ldi	r31, 0x00	; 0
    2048:	e7 5d       	subi	r30, 0xD7	; 215
    204a:	fe 4f       	sbci	r31, 0xFE	; 254
    204c:	20 81       	ld	r18, Z
    204e:	fc 01       	movw	r30, r24
    2050:	20 83       	st	Z, r18
    2052:	68 e5       	ldi	r22, 0x58	; 88
    2054:	70 e0       	ldi	r23, 0x00	; 0
    2056:	80 e5       	ldi	r24, 0x50	; 80
    2058:	91 e0       	ldi	r25, 0x01	; 1
    205a:	0e 94 b2 1d 	call	0x3b64	; 0x3b64 <strchr>
    205e:	c0 91 24 05 	lds	r28, 0x0524
    2062:	ac 2f       	mov	r26, r28
    2064:	a2 95       	swap	r26
    2066:	af 70       	andi	r26, 0x0F	; 15
    2068:	b0 e0       	ldi	r27, 0x00	; 0
    206a:	a7 5d       	subi	r26, 0xD7	; 215
    206c:	be 4f       	sbci	r27, 0xFE	; 254
    206e:	2c 91       	ld	r18, X
    2070:	fc 01       	movw	r30, r24
    2072:	20 83       	st	Z, r18
    2074:	68 e5       	ldi	r22, 0x58	; 88
    2076:	70 e0       	ldi	r23, 0x00	; 0
    2078:	80 e5       	ldi	r24, 0x50	; 80
    207a:	91 e0       	ldi	r25, 0x01	; 1
    207c:	0e 94 b2 1d 	call	0x3b64	; 0x3b64 <strchr>
    2080:	cf 70       	andi	r28, 0x0F	; 15
    2082:	ec 2f       	mov	r30, r28
    2084:	f0 e0       	ldi	r31, 0x00	; 0
    2086:	e7 5d       	subi	r30, 0xD7	; 215
    2088:	fe 4f       	sbci	r31, 0xFE	; 254
    208a:	20 81       	ld	r18, Z
    208c:	fc 01       	movw	r30, r24
    208e:	20 83       	st	Z, r18
    2090:	68 e5       	ldi	r22, 0x58	; 88
    2092:	70 e0       	ldi	r23, 0x00	; 0
    2094:	8b e3       	ldi	r24, 0x3B	; 59
    2096:	91 e0       	ldi	r25, 0x01	; 1
    2098:	0e 94 b2 1d 	call	0x3b64	; 0x3b64 <strchr>
    209c:	c0 91 25 05 	lds	r28, 0x0525
    20a0:	d0 91 26 05 	lds	r29, 0x0526
    20a4:	fe 01       	movw	r30, r28
    20a6:	ef 2f       	mov	r30, r31
    20a8:	ff 27       	eor	r31, r31
    20aa:	e2 95       	swap	r30
    20ac:	ef 70       	andi	r30, 0x0F	; 15
    20ae:	e7 5d       	subi	r30, 0xD7	; 215
    20b0:	fe 4f       	sbci	r31, 0xFE	; 254
    20b2:	20 81       	ld	r18, Z
    20b4:	fc 01       	movw	r30, r24
    20b6:	20 83       	st	Z, r18
    20b8:	68 e5       	ldi	r22, 0x58	; 88
    20ba:	70 e0       	ldi	r23, 0x00	; 0
    20bc:	8b e3       	ldi	r24, 0x3B	; 59
    20be:	91 e0       	ldi	r25, 0x01	; 1
    20c0:	0e 94 b2 1d 	call	0x3b64	; 0x3b64 <strchr>
    20c4:	fe 01       	movw	r30, r28
    20c6:	ee 27       	eor	r30, r30
    20c8:	ff 70       	andi	r31, 0x0F	; 15
    20ca:	ef 2f       	mov	r30, r31
    20cc:	ff 0f       	add	r31, r31
    20ce:	ff 0b       	sbc	r31, r31
    20d0:	e7 5d       	subi	r30, 0xD7	; 215
    20d2:	fe 4f       	sbci	r31, 0xFE	; 254
    20d4:	20 81       	ld	r18, Z
    20d6:	fc 01       	movw	r30, r24
    20d8:	20 83       	st	Z, r18
    20da:	68 e5       	ldi	r22, 0x58	; 88
    20dc:	70 e0       	ldi	r23, 0x00	; 0
    20de:	8b e3       	ldi	r24, 0x3B	; 59
    20e0:	91 e0       	ldi	r25, 0x01	; 1
    20e2:	0e 94 b2 1d 	call	0x3b64	; 0x3b64 <strchr>
    20e6:	fe 01       	movw	r30, r28
    20e8:	e0 7f       	andi	r30, 0xF0	; 240
    20ea:	ff 27       	eor	r31, r31
    20ec:	f5 95       	asr	r31
    20ee:	e7 95       	ror	r30
    20f0:	f5 95       	asr	r31
    20f2:	e7 95       	ror	r30
    20f4:	f5 95       	asr	r31
    20f6:	e7 95       	ror	r30
    20f8:	f5 95       	asr	r31
    20fa:	e7 95       	ror	r30
    20fc:	e7 5d       	subi	r30, 0xD7	; 215
    20fe:	fe 4f       	sbci	r31, 0xFE	; 254
    2100:	20 81       	ld	r18, Z
    2102:	fc 01       	movw	r30, r24
    2104:	20 83       	st	Z, r18
    2106:	68 e5       	ldi	r22, 0x58	; 88
    2108:	70 e0       	ldi	r23, 0x00	; 0
    210a:	8b e3       	ldi	r24, 0x3B	; 59
    210c:	91 e0       	ldi	r25, 0x01	; 1
    210e:	0e 94 b2 1d 	call	0x3b64	; 0x3b64 <strchr>
    2112:	cf 70       	andi	r28, 0x0F	; 15
    2114:	dd 27       	eor	r29, r29
    2116:	c7 5d       	subi	r28, 0xD7	; 215
    2118:	de 4f       	sbci	r29, 0xFE	; 254
    211a:	28 81       	ld	r18, Y
    211c:	fc 01       	movw	r30, r24
    211e:	20 83       	st	Z, r18
    2120:	85 e0       	ldi	r24, 0x05	; 5
    2122:	0e 94 cb 00 	call	0x196	; 0x196 <_Z8read_adch>
    2126:	18 2f       	mov	r17, r24
    2128:	68 e5       	ldi	r22, 0x58	; 88
    212a:	70 e0       	ldi	r23, 0x00	; 0
    212c:	8b e3       	ldi	r24, 0x3B	; 59
    212e:	91 e0       	ldi	r25, 0x01	; 1
    2130:	0e 94 b2 1d 	call	0x3b64	; 0x3b64 <strchr>
    2134:	dc 01       	movw	r26, r24
    2136:	c1 2f       	mov	r28, r17
    2138:	c2 95       	swap	r28
    213a:	cf 70       	andi	r28, 0x0F	; 15
    213c:	d0 e0       	ldi	r29, 0x00	; 0
    213e:	c7 5d       	subi	r28, 0xD7	; 215
    2140:	de 4f       	sbci	r29, 0xFE	; 254
    2142:	88 81       	ld	r24, Y
    2144:	8c 93       	st	X, r24
    2146:	1f 70       	andi	r17, 0x0F	; 15
    2148:	e1 2f       	mov	r30, r17
    214a:	f0 e0       	ldi	r31, 0x00	; 0
    214c:	e7 5d       	subi	r30, 0xD7	; 215
    214e:	fe 4f       	sbci	r31, 0xFE	; 254
    2150:	80 81       	ld	r24, Z
    2152:	80 93 44 01 	sts	0x0144, r24
    2156:	68 e5       	ldi	r22, 0x58	; 88
    2158:	70 e0       	ldi	r23, 0x00	; 0
    215a:	8b e3       	ldi	r24, 0x3B	; 59
    215c:	91 e0       	ldi	r25, 0x01	; 1
    215e:	0e 94 b2 1d 	call	0x3b64	; 0x3b64 <strchr>
    2162:	e0 91 c9 04 	lds	r30, 0x04C9
    2166:	f0 e0       	ldi	r31, 0x00	; 0
    2168:	e7 5d       	subi	r30, 0xD7	; 215
    216a:	fe 4f       	sbci	r31, 0xFE	; 254
    216c:	20 81       	ld	r18, Z
    216e:	fc 01       	movw	r30, r24
    2170:	20 83       	st	Z, r18
    2172:	68 e5       	ldi	r22, 0x58	; 88
    2174:	70 e0       	ldi	r23, 0x00	; 0
    2176:	8b e3       	ldi	r24, 0x3B	; 59
    2178:	91 e0       	ldi	r25, 0x01	; 1
    217a:	0e 94 b2 1d 	call	0x3b64	; 0x3b64 <strchr>
    217e:	e0 91 ca 04 	lds	r30, 0x04CA
    2182:	f0 e0       	ldi	r31, 0x00	; 0
    2184:	e7 5d       	subi	r30, 0xD7	; 215
    2186:	fe 4f       	sbci	r31, 0xFE	; 254
    2188:	20 81       	ld	r18, Z
    218a:	fc 01       	movw	r30, r24
    218c:	20 83       	st	Z, r18
    218e:	68 e5       	ldi	r22, 0x58	; 88
    2190:	70 e0       	ldi	r23, 0x00	; 0
    2192:	8b e3       	ldi	r24, 0x3B	; 59
    2194:	91 e0       	ldi	r25, 0x01	; 1
    2196:	0e 94 b2 1d 	call	0x3b64	; 0x3b64 <strchr>
    219a:	e0 91 cb 04 	lds	r30, 0x04CB
    219e:	f0 e0       	ldi	r31, 0x00	; 0
    21a0:	e7 5d       	subi	r30, 0xD7	; 215
    21a2:	fe 4f       	sbci	r31, 0xFE	; 254
    21a4:	20 81       	ld	r18, Z
    21a6:	fc 01       	movw	r30, r24
    21a8:	20 83       	st	Z, r18
    21aa:	68 e5       	ldi	r22, 0x58	; 88
    21ac:	70 e0       	ldi	r23, 0x00	; 0
    21ae:	8b e3       	ldi	r24, 0x3B	; 59
    21b0:	91 e0       	ldi	r25, 0x01	; 1
    21b2:	0e 94 b2 1d 	call	0x3b64	; 0x3b64 <strchr>
    21b6:	e0 91 cc 04 	lds	r30, 0x04CC
    21ba:	f0 e0       	ldi	r31, 0x00	; 0
    21bc:	e7 5d       	subi	r30, 0xD7	; 215
    21be:	fe 4f       	sbci	r31, 0xFE	; 254
    21c0:	20 81       	ld	r18, Z
    21c2:	fc 01       	movw	r30, r24
    21c4:	20 83       	st	Z, r18
    21c6:	20 e0       	ldi	r18, 0x00	; 0
    21c8:	a0 e5       	ldi	r26, 0x50	; 80
    21ca:	b1 e0       	ldi	r27, 0x01	; 1
    21cc:	40 e2       	ldi	r20, 0x20	; 32
    21ce:	17 c0       	rjmp	.+46     	; 0x21fe <_Z16drawFuncZselMenuP9CMenuItem+0x2ba>
    21d0:	82 2f       	mov	r24, r18
    21d2:	90 e0       	ldi	r25, 0x00	; 0
    21d4:	fc 01       	movw	r30, r24
    21d6:	e0 5b       	subi	r30, 0xB0	; 176
    21d8:	fe 4f       	sbci	r31, 0xFE	; 254
    21da:	30 81       	ld	r19, Z
    21dc:	30 34       	cpi	r19, 0x40	; 64
    21de:	21 f4       	brne	.+8      	; 0x21e8 <_Z16drawFuncZselMenuP9CMenuItem+0x2a4>
    21e0:	fc 01       	movw	r30, r24
    21e2:	e0 5b       	subi	r30, 0xB0	; 176
    21e4:	fe 4f       	sbci	r31, 0xFE	; 254
    21e6:	40 83       	st	Z, r20
    21e8:	fc 01       	movw	r30, r24
    21ea:	e5 5c       	subi	r30, 0xC5	; 197
    21ec:	fe 4f       	sbci	r31, 0xFE	; 254
    21ee:	30 81       	ld	r19, Z
    21f0:	30 34       	cpi	r19, 0x40	; 64
    21f2:	21 f4       	brne	.+8      	; 0x21fc <_Z16drawFuncZselMenuP9CMenuItem+0x2b8>
    21f4:	fc 01       	movw	r30, r24
    21f6:	e5 5c       	subi	r30, 0xC5	; 197
    21f8:	fe 4f       	sbci	r31, 0xFE	; 254
    21fa:	40 83       	st	Z, r20
    21fc:	2f 5f       	subi	r18, 0xFF	; 255
    21fe:	fd 01       	movw	r30, r26
    2200:	01 90       	ld	r0, Z+
    2202:	00 20       	and	r0, r0
    2204:	e9 f7       	brne	.-6      	; 0x2200 <_Z16drawFuncZselMenuP9CMenuItem+0x2bc>
    2206:	31 97       	sbiw	r30, 0x01	; 1
    2208:	e0 55       	subi	r30, 0x50	; 80
    220a:	f1 40       	sbci	r31, 0x01	; 1
    220c:	82 2f       	mov	r24, r18
    220e:	90 e0       	ldi	r25, 0x00	; 0
    2210:	8e 17       	cp	r24, r30
    2212:	9f 07       	cpc	r25, r31
    2214:	e8 f2       	brcs	.-70     	; 0x21d0 <_Z16drawFuncZselMenuP9CMenuItem+0x28c>
    2216:	45 e6       	ldi	r20, 0x65	; 101
    2218:	51 e0       	ldi	r21, 0x01	; 1
    221a:	6b e3       	ldi	r22, 0x3B	; 59
    221c:	71 e0       	ldi	r23, 0x01	; 1
    221e:	80 e5       	ldi	r24, 0x50	; 80
    2220:	91 e0       	ldi	r25, 0x01	; 1
    2222:	c5 dc       	rcall	.-1654   	; 0x1bae <_Z11Str2DrawStrPhS_S_>
    2224:	85 e6       	ldi	r24, 0x65	; 101
    2226:	91 e0       	ldi	r25, 0x01	; 1
    2228:	eb dc       	rcall	.-1578   	; 0x1c00 <_Z9DrawOnLCDPh>
    222a:	df 91       	pop	r29
    222c:	cf 91       	pop	r28
    222e:	1f 91       	pop	r17
    2230:	08 95       	ret

00002232 <_Z11reverseBitsjPj>:
    2232:	cf 93       	push	r28
    2234:	df 93       	push	r29
    2236:	20 e0       	ldi	r18, 0x00	; 0
    2238:	30 e0       	ldi	r19, 0x00	; 0
    223a:	40 e0       	ldi	r20, 0x00	; 0
    223c:	50 e0       	ldi	r21, 0x00	; 0
    223e:	af e0       	ldi	r26, 0x0F	; 15
    2240:	b0 e0       	ldi	r27, 0x00	; 0
    2242:	fd 01       	movw	r30, r26
    2244:	e2 1b       	sub	r30, r18
    2246:	f3 0b       	sbc	r31, r19
    2248:	ec 01       	movw	r28, r24
    224a:	02 c0       	rjmp	.+4      	; 0x2250 <_Z11reverseBitsjPj+0x1e>
    224c:	d6 95       	lsr	r29
    224e:	c7 95       	ror	r28
    2250:	ea 95       	dec	r30
    2252:	e2 f7       	brpl	.-8      	; 0x224c <_Z11reverseBitsjPj+0x1a>
    2254:	fe 01       	movw	r30, r28
    2256:	e1 70       	andi	r30, 0x01	; 1
    2258:	ff 27       	eor	r31, r31
    225a:	02 2e       	mov	r0, r18
    225c:	02 c0       	rjmp	.+4      	; 0x2262 <_Z11reverseBitsjPj+0x30>
    225e:	ee 0f       	add	r30, r30
    2260:	ff 1f       	adc	r31, r31
    2262:	0a 94       	dec	r0
    2264:	e2 f7       	brpl	.-8      	; 0x225e <_Z11reverseBitsjPj+0x2c>
    2266:	4e 0f       	add	r20, r30
    2268:	5f 1f       	adc	r21, r31
    226a:	2f 5f       	subi	r18, 0xFF	; 255
    226c:	3f 4f       	sbci	r19, 0xFF	; 255
    226e:	20 31       	cpi	r18, 0x10	; 16
    2270:	31 05       	cpc	r19, r1
    2272:	39 f7       	brne	.-50     	; 0x2242 <_Z11reverseBitsjPj+0x10>
    2274:	fb 01       	movw	r30, r22
    2276:	51 83       	std	Z+1, r21	; 0x01
    2278:	40 83       	st	Z, r20
    227a:	df 91       	pop	r29
    227c:	cf 91       	pop	r28
    227e:	08 95       	ret

00002280 <_Z7LCA2outjhjhhPj>:
    2280:	bf 92       	push	r11
    2282:	cf 92       	push	r12
    2284:	df 92       	push	r13
    2286:	ef 92       	push	r14
    2288:	ff 92       	push	r15
    228a:	0f 93       	push	r16
    228c:	1f 93       	push	r17
    228e:	cf 93       	push	r28
    2290:	df 93       	push	r29
    2292:	00 d0       	rcall	.+0      	; 0x2294 <_Z7LCA2outjhjhhPj+0x14>
    2294:	00 d0       	rcall	.+0      	; 0x2296 <_Z7LCA2outjhjhhPj+0x16>
    2296:	cd b7       	in	r28, 0x3d	; 61
    2298:	de b7       	in	r29, 0x3e	; 62
    229a:	9a 83       	std	Y+2, r25	; 0x02
    229c:	89 83       	std	Y+1, r24	; 0x01
    229e:	16 2f       	mov	r17, r22
    22a0:	5c 83       	std	Y+4, r21	; 0x04
    22a2:	4b 83       	std	Y+3, r20	; 0x03
    22a4:	b2 2e       	mov	r11, r18
    22a6:	be 01       	movw	r22, r28
    22a8:	6f 5f       	subi	r22, 0xFF	; 255
    22aa:	7f 4f       	sbci	r23, 0xFF	; 255
    22ac:	c2 df       	rcall	.-124    	; 0x2232 <_Z11reverseBitsjPj>
    22ae:	89 81       	ldd	r24, Y+1	; 0x01
    22b0:	9a 81       	ldd	r25, Y+2	; 0x02
    22b2:	92 95       	swap	r25
    22b4:	82 95       	swap	r24
    22b6:	8f 70       	andi	r24, 0x0F	; 15
    22b8:	89 27       	eor	r24, r25
    22ba:	9f 70       	andi	r25, 0x0F	; 15
    22bc:	89 27       	eor	r24, r25
    22be:	9a 83       	std	Y+2, r25	; 0x02
    22c0:	89 83       	std	Y+1, r24	; 0x01
    22c2:	be 01       	movw	r22, r28
    22c4:	6d 5f       	subi	r22, 0xFD	; 253
    22c6:	7f 4f       	sbci	r23, 0xFF	; 255
    22c8:	8b 81       	ldd	r24, Y+3	; 0x03
    22ca:	9c 81       	ldd	r25, Y+4	; 0x04
    22cc:	b2 df       	rcall	.-156    	; 0x2232 <_Z11reverseBitsjPj>
    22ce:	2b 81       	ldd	r18, Y+3	; 0x03
    22d0:	3c 81       	ldd	r19, Y+4	; 0x04
    22d2:	81 2f       	mov	r24, r17
    22d4:	90 e0       	ldi	r25, 0x00	; 0
    22d6:	98 2f       	mov	r25, r24
    22d8:	88 27       	eor	r24, r24
    22da:	92 95       	swap	r25
    22dc:	99 0f       	add	r25, r25
    22de:	90 7e       	andi	r25, 0xE0	; 224
    22e0:	49 81       	ldd	r20, Y+1	; 0x01
    22e2:	5a 81       	ldd	r21, Y+2	; 0x02
    22e4:	5f 70       	andi	r21, 0x0F	; 15
    22e6:	48 0f       	add	r20, r24
    22e8:	59 1f       	adc	r21, r25
    22ea:	f7 01       	movw	r30, r14
    22ec:	51 83       	std	Z+1, r21	; 0x01
    22ee:	40 83       	st	Z, r20
    22f0:	18 77       	andi	r17, 0x78	; 120
    22f2:	81 2f       	mov	r24, r17
    22f4:	90 e0       	ldi	r25, 0x00	; 0
    22f6:	96 95       	lsr	r25
    22f8:	87 95       	ror	r24
    22fa:	96 95       	lsr	r25
    22fc:	87 95       	ror	r24
    22fe:	96 95       	lsr	r25
    2300:	87 95       	ror	r24
    2302:	b9 01       	movw	r22, r18
    2304:	60 7f       	andi	r22, 0xF0	; 240
    2306:	68 0f       	add	r22, r24
    2308:	79 1f       	adc	r23, r25
    230a:	73 83       	std	Z+3, r23	; 0x03
    230c:	62 83       	std	Z+2, r22	; 0x02
    230e:	80 e2       	ldi	r24, 0x20	; 32
    2310:	08 27       	eor	r16, r24
    2312:	10 e0       	ldi	r17, 0x00	; 0
    2314:	00 95       	com	r16
    2316:	10 95       	com	r17
    2318:	50 2f       	mov	r21, r16
    231a:	44 27       	eor	r20, r20
    231c:	8b 2d       	mov	r24, r11
    231e:	90 e0       	ldi	r25, 0x00	; 0
    2320:	88 0f       	add	r24, r24
    2322:	99 1f       	adc	r25, r25
    2324:	84 0f       	add	r24, r20
    2326:	95 1f       	adc	r25, r21
    2328:	05 fb       	bst	r16, 5
    232a:	cc 24       	eor	r12, r12
    232c:	c0 f8       	bld	r12, 0
    232e:	d1 2c       	mov	r13, r1
    2330:	c8 0e       	add	r12, r24
    2332:	d9 1e       	adc	r13, r25
    2334:	d5 82       	std	Z+5, r13	; 0x05
    2336:	c4 82       	std	Z+4, r12	; 0x04
    2338:	0f 90       	pop	r0
    233a:	0f 90       	pop	r0
    233c:	0f 90       	pop	r0
    233e:	0f 90       	pop	r0
    2340:	df 91       	pop	r29
    2342:	cf 91       	pop	r28
    2344:	1f 91       	pop	r17
    2346:	0f 91       	pop	r16
    2348:	ff 90       	pop	r15
    234a:	ef 90       	pop	r14
    234c:	df 90       	pop	r13
    234e:	cf 90       	pop	r12
    2350:	bf 90       	pop	r11
    2352:	08 95       	ret

00002354 <_Z10outLCA2LCAPjPhS_S0_S0_S_>:
    2354:	cf 92       	push	r12
    2356:	df 92       	push	r13
    2358:	ef 92       	push	r14
    235a:	ff 92       	push	r15
    235c:	0f 93       	push	r16
    235e:	1f 93       	push	r17
    2360:	cf 93       	push	r28
    2362:	df 93       	push	r29
    2364:	6c 01       	movw	r12, r24
    2366:	ea 01       	movw	r28, r20
    2368:	f7 01       	movw	r30, r14
    236a:	80 81       	ld	r24, Z
    236c:	91 81       	ldd	r25, Z+1	; 0x01
    236e:	9f 70       	andi	r25, 0x0F	; 15
    2370:	d6 01       	movw	r26, r12
    2372:	8d 93       	st	X+, r24
    2374:	9c 93       	st	X, r25
    2376:	82 81       	ldd	r24, Z+2	; 0x02
    2378:	8f 70       	andi	r24, 0x0F	; 15
    237a:	88 0f       	add	r24, r24
    237c:	88 0f       	add	r24, r24
    237e:	88 0f       	add	r24, r24
    2380:	91 81       	ldd	r25, Z+1	; 0x01
    2382:	92 95       	swap	r25
    2384:	96 95       	lsr	r25
    2386:	97 70       	andi	r25, 0x07	; 7
    2388:	89 0f       	add	r24, r25
    238a:	db 01       	movw	r26, r22
    238c:	8c 93       	st	X, r24
    238e:	82 81       	ldd	r24, Z+2	; 0x02
    2390:	93 81       	ldd	r25, Z+3	; 0x03
    2392:	92 95       	swap	r25
    2394:	82 95       	swap	r24
    2396:	8f 70       	andi	r24, 0x0F	; 15
    2398:	89 27       	eor	r24, r25
    239a:	9f 70       	andi	r25, 0x0F	; 15
    239c:	89 27       	eor	r24, r25
    239e:	99 83       	std	Y+1, r25	; 0x01
    23a0:	88 83       	st	Y, r24
    23a2:	84 81       	ldd	r24, Z+4	; 0x04
    23a4:	86 95       	lsr	r24
    23a6:	d9 01       	movw	r26, r18
    23a8:	8c 93       	st	X, r24
    23aa:	84 81       	ldd	r24, Z+4	; 0x04
    23ac:	95 81       	ldd	r25, Z+5	; 0x05
    23ae:	88 27       	eor	r24, r24
    23b0:	9f 73       	andi	r25, 0x3F	; 63
    23b2:	89 2f       	mov	r24, r25
    23b4:	80 95       	com	r24
    23b6:	8f 73       	andi	r24, 0x3F	; 63
    23b8:	90 e2       	ldi	r25, 0x20	; 32
    23ba:	89 27       	eor	r24, r25
    23bc:	f8 01       	movw	r30, r16
    23be:	80 83       	st	Z, r24
    23c0:	b6 01       	movw	r22, r12
    23c2:	d6 01       	movw	r26, r12
    23c4:	8d 91       	ld	r24, X+
    23c6:	9c 91       	ld	r25, X
    23c8:	34 df       	rcall	.-408    	; 0x2232 <_Z11reverseBitsjPj>
    23ca:	f6 01       	movw	r30, r12
    23cc:	80 81       	ld	r24, Z
    23ce:	91 81       	ldd	r25, Z+1	; 0x01
    23d0:	92 95       	swap	r25
    23d2:	82 95       	swap	r24
    23d4:	8f 70       	andi	r24, 0x0F	; 15
    23d6:	89 27       	eor	r24, r25
    23d8:	9f 70       	andi	r25, 0x0F	; 15
    23da:	89 27       	eor	r24, r25
    23dc:	91 83       	std	Z+1, r25	; 0x01
    23de:	80 83       	st	Z, r24
    23e0:	be 01       	movw	r22, r28
    23e2:	88 81       	ld	r24, Y
    23e4:	99 81       	ldd	r25, Y+1	; 0x01
    23e6:	25 df       	rcall	.-438    	; 0x2232 <_Z11reverseBitsjPj>
    23e8:	88 81       	ld	r24, Y
    23ea:	99 81       	ldd	r25, Y+1	; 0x01
    23ec:	92 95       	swap	r25
    23ee:	82 95       	swap	r24
    23f0:	8f 70       	andi	r24, 0x0F	; 15
    23f2:	89 27       	eor	r24, r25
    23f4:	9f 70       	andi	r25, 0x0F	; 15
    23f6:	89 27       	eor	r24, r25
    23f8:	99 83       	std	Y+1, r25	; 0x01
    23fa:	88 83       	st	Y, r24
    23fc:	df 91       	pop	r29
    23fe:	cf 91       	pop	r28
    2400:	1f 91       	pop	r17
    2402:	0f 91       	pop	r16
    2404:	ff 90       	pop	r15
    2406:	ef 90       	pop	r14
    2408:	df 90       	pop	r13
    240a:	cf 90       	pop	r12
    240c:	08 95       	ret

0000240e <_Z15drawFuncLCAMenuP9CMenuItem>:
    240e:	ef 92       	push	r14
    2410:	ff 92       	push	r15
    2412:	0f 93       	push	r16
    2414:	1f 93       	push	r17
    2416:	cf 93       	push	r28
    2418:	df 93       	push	r29
    241a:	ec 01       	movw	r28, r24
    241c:	40 91 25 01 	lds	r20, 0x0125
    2420:	50 91 26 01 	lds	r21, 0x0126
    2424:	0f 2e       	mov	r0, r31
    2426:	f0 ee       	ldi	r31, 0xE0	; 224
    2428:	ef 2e       	mov	r14, r31
    242a:	f4 e0       	ldi	r31, 0x04	; 4
    242c:	ff 2e       	mov	r15, r31
    242e:	f0 2d       	mov	r31, r0
    2430:	00 91 22 01 	lds	r16, 0x0122
    2434:	20 91 23 01 	lds	r18, 0x0123
    2438:	60 91 24 01 	lds	r22, 0x0124
    243c:	80 91 27 01 	lds	r24, 0x0127
    2440:	90 91 28 01 	lds	r25, 0x0128
    2444:	1d df       	rcall	.-454    	; 0x2280 <_Z7LCA2outjhjhhPj>
    2446:	02 e2       	ldi	r16, 0x22	; 34
    2448:	11 e0       	ldi	r17, 0x01	; 1
    244a:	23 e2       	ldi	r18, 0x23	; 35
    244c:	31 e0       	ldi	r19, 0x01	; 1
    244e:	45 e2       	ldi	r20, 0x25	; 37
    2450:	51 e0       	ldi	r21, 0x01	; 1
    2452:	64 e2       	ldi	r22, 0x24	; 36
    2454:	71 e0       	ldi	r23, 0x01	; 1
    2456:	87 e2       	ldi	r24, 0x27	; 39
    2458:	91 e0       	ldi	r25, 0x01	; 1
    245a:	7c df       	rcall	.-264    	; 0x2354 <_Z10outLCA2LCAPjPhS_S0_S0_S_>
    245c:	6f 89       	ldd	r22, Y+23	; 0x17
    245e:	78 8d       	ldd	r23, Y+24	; 0x18
    2460:	fb 01       	movw	r30, r22
    2462:	01 90       	ld	r0, Z+
    2464:	00 20       	and	r0, r0
    2466:	e9 f7       	brne	.-6      	; 0x2462 <_Z15drawFuncLCAMenuP9CMenuItem+0x54>
    2468:	31 97       	sbiw	r30, 0x01	; 1
    246a:	af 01       	movw	r20, r30
    246c:	46 1b       	sub	r20, r22
    246e:	57 0b       	sbc	r21, r23
    2470:	45 31       	cpi	r20, 0x15	; 21
    2472:	51 05       	cpc	r21, r1
    2474:	10 f0       	brcs	.+4      	; 0x247a <_Z15drawFuncLCAMenuP9CMenuItem+0x6c>
    2476:	44 e1       	ldi	r20, 0x14	; 20
    2478:	50 e0       	ldi	r21, 0x00	; 0
    247a:	80 e5       	ldi	r24, 0x50	; 80
    247c:	91 e0       	ldi	r25, 0x01	; 1
    247e:	0e 94 a9 1d 	call	0x3b52	; 0x3b52 <memcpy>
    2482:	69 8d       	ldd	r22, Y+25	; 0x19
    2484:	7a 8d       	ldd	r23, Y+26	; 0x1a
    2486:	fb 01       	movw	r30, r22
    2488:	01 90       	ld	r0, Z+
    248a:	00 20       	and	r0, r0
    248c:	e9 f7       	brne	.-6      	; 0x2488 <_Z15drawFuncLCAMenuP9CMenuItem+0x7a>
    248e:	31 97       	sbiw	r30, 0x01	; 1
    2490:	af 01       	movw	r20, r30
    2492:	46 1b       	sub	r20, r22
    2494:	57 0b       	sbc	r21, r23
    2496:	45 31       	cpi	r20, 0x15	; 21
    2498:	51 05       	cpc	r21, r1
    249a:	10 f0       	brcs	.+4      	; 0x24a0 <_Z15drawFuncLCAMenuP9CMenuItem+0x92>
    249c:	44 e1       	ldi	r20, 0x14	; 20
    249e:	50 e0       	ldi	r21, 0x00	; 0
    24a0:	8b e3       	ldi	r24, 0x3B	; 59
    24a2:	91 e0       	ldi	r25, 0x01	; 1
    24a4:	0e 94 a9 1d 	call	0x3b52	; 0x3b52 <memcpy>
    24a8:	68 e5       	ldi	r22, 0x58	; 88
    24aa:	70 e0       	ldi	r23, 0x00	; 0
    24ac:	80 e5       	ldi	r24, 0x50	; 80
    24ae:	91 e0       	ldi	r25, 0x01	; 1
    24b0:	0e 94 b2 1d 	call	0x3b64	; 0x3b64 <strchr>
    24b4:	c0 91 22 01 	lds	r28, 0x0122
    24b8:	ac 2f       	mov	r26, r28
    24ba:	a2 95       	swap	r26
    24bc:	af 70       	andi	r26, 0x0F	; 15
    24be:	b0 e0       	ldi	r27, 0x00	; 0
    24c0:	a7 5d       	subi	r26, 0xD7	; 215
    24c2:	be 4f       	sbci	r27, 0xFE	; 254
    24c4:	2c 91       	ld	r18, X
    24c6:	fc 01       	movw	r30, r24
    24c8:	20 83       	st	Z, r18
    24ca:	68 e5       	ldi	r22, 0x58	; 88
    24cc:	70 e0       	ldi	r23, 0x00	; 0
    24ce:	80 e5       	ldi	r24, 0x50	; 80
    24d0:	91 e0       	ldi	r25, 0x01	; 1
    24d2:	0e 94 b2 1d 	call	0x3b64	; 0x3b64 <strchr>
    24d6:	cf 70       	andi	r28, 0x0F	; 15
    24d8:	ec 2f       	mov	r30, r28
    24da:	f0 e0       	ldi	r31, 0x00	; 0
    24dc:	e7 5d       	subi	r30, 0xD7	; 215
    24de:	fe 4f       	sbci	r31, 0xFE	; 254
    24e0:	20 81       	ld	r18, Z
    24e2:	fc 01       	movw	r30, r24
    24e4:	20 83       	st	Z, r18
    24e6:	68 e5       	ldi	r22, 0x58	; 88
    24e8:	70 e0       	ldi	r23, 0x00	; 0
    24ea:	80 e5       	ldi	r24, 0x50	; 80
    24ec:	91 e0       	ldi	r25, 0x01	; 1
    24ee:	0e 94 b2 1d 	call	0x3b64	; 0x3b64 <strchr>
    24f2:	c0 91 24 01 	lds	r28, 0x0124
    24f6:	ac 2f       	mov	r26, r28
    24f8:	a2 95       	swap	r26
    24fa:	af 70       	andi	r26, 0x0F	; 15
    24fc:	b0 e0       	ldi	r27, 0x00	; 0
    24fe:	a7 5d       	subi	r26, 0xD7	; 215
    2500:	be 4f       	sbci	r27, 0xFE	; 254
    2502:	2c 91       	ld	r18, X
    2504:	fc 01       	movw	r30, r24
    2506:	20 83       	st	Z, r18
    2508:	68 e5       	ldi	r22, 0x58	; 88
    250a:	70 e0       	ldi	r23, 0x00	; 0
    250c:	80 e5       	ldi	r24, 0x50	; 80
    250e:	91 e0       	ldi	r25, 0x01	; 1
    2510:	0e 94 b2 1d 	call	0x3b64	; 0x3b64 <strchr>
    2514:	cf 70       	andi	r28, 0x0F	; 15
    2516:	ec 2f       	mov	r30, r28
    2518:	f0 e0       	ldi	r31, 0x00	; 0
    251a:	e7 5d       	subi	r30, 0xD7	; 215
    251c:	fe 4f       	sbci	r31, 0xFE	; 254
    251e:	20 81       	ld	r18, Z
    2520:	fc 01       	movw	r30, r24
    2522:	20 83       	st	Z, r18
    2524:	68 e5       	ldi	r22, 0x58	; 88
    2526:	70 e0       	ldi	r23, 0x00	; 0
    2528:	80 e5       	ldi	r24, 0x50	; 80
    252a:	91 e0       	ldi	r25, 0x01	; 1
    252c:	0e 94 b2 1d 	call	0x3b64	; 0x3b64 <strchr>
    2530:	c0 91 27 01 	lds	r28, 0x0127
    2534:	d0 91 28 01 	lds	r29, 0x0128
    2538:	fe 01       	movw	r30, r28
    253a:	ee 27       	eor	r30, r30
    253c:	ff 70       	andi	r31, 0x0F	; 15
    253e:	ef 2f       	mov	r30, r31
    2540:	ff 27       	eor	r31, r31
    2542:	e7 5d       	subi	r30, 0xD7	; 215
    2544:	fe 4f       	sbci	r31, 0xFE	; 254
    2546:	20 81       	ld	r18, Z
    2548:	fc 01       	movw	r30, r24
    254a:	20 83       	st	Z, r18
    254c:	68 e5       	ldi	r22, 0x58	; 88
    254e:	70 e0       	ldi	r23, 0x00	; 0
    2550:	80 e5       	ldi	r24, 0x50	; 80
    2552:	91 e0       	ldi	r25, 0x01	; 1
    2554:	0e 94 b2 1d 	call	0x3b64	; 0x3b64 <strchr>
    2558:	fe 01       	movw	r30, r28
    255a:	e0 7f       	andi	r30, 0xF0	; 240
    255c:	ff 27       	eor	r31, r31
    255e:	f2 95       	swap	r31
    2560:	e2 95       	swap	r30
    2562:	ef 70       	andi	r30, 0x0F	; 15
    2564:	ef 27       	eor	r30, r31
    2566:	ff 70       	andi	r31, 0x0F	; 15
    2568:	ef 27       	eor	r30, r31
    256a:	e7 5d       	subi	r30, 0xD7	; 215
    256c:	fe 4f       	sbci	r31, 0xFE	; 254
    256e:	20 81       	ld	r18, Z
    2570:	fc 01       	movw	r30, r24
    2572:	20 83       	st	Z, r18
    2574:	68 e5       	ldi	r22, 0x58	; 88
    2576:	70 e0       	ldi	r23, 0x00	; 0
    2578:	80 e5       	ldi	r24, 0x50	; 80
    257a:	91 e0       	ldi	r25, 0x01	; 1
    257c:	0e 94 b2 1d 	call	0x3b64	; 0x3b64 <strchr>
    2580:	cf 70       	andi	r28, 0x0F	; 15
    2582:	dd 27       	eor	r29, r29
    2584:	c7 5d       	subi	r28, 0xD7	; 215
    2586:	de 4f       	sbci	r29, 0xFE	; 254
    2588:	28 81       	ld	r18, Y
    258a:	fc 01       	movw	r30, r24
    258c:	20 83       	st	Z, r18
    258e:	68 e5       	ldi	r22, 0x58	; 88
    2590:	70 e0       	ldi	r23, 0x00	; 0
    2592:	8b e3       	ldi	r24, 0x3B	; 59
    2594:	91 e0       	ldi	r25, 0x01	; 1
    2596:	0e 94 b2 1d 	call	0x3b64	; 0x3b64 <strchr>
    259a:	c0 91 e6 04 	lds	r28, 0x04E6
    259e:	ac 2f       	mov	r26, r28
    25a0:	a2 95       	swap	r26
    25a2:	af 70       	andi	r26, 0x0F	; 15
    25a4:	b0 e0       	ldi	r27, 0x00	; 0
    25a6:	a7 5d       	subi	r26, 0xD7	; 215
    25a8:	be 4f       	sbci	r27, 0xFE	; 254
    25aa:	2c 91       	ld	r18, X
    25ac:	fc 01       	movw	r30, r24
    25ae:	20 83       	st	Z, r18
    25b0:	68 e5       	ldi	r22, 0x58	; 88
    25b2:	70 e0       	ldi	r23, 0x00	; 0
    25b4:	8b e3       	ldi	r24, 0x3B	; 59
    25b6:	91 e0       	ldi	r25, 0x01	; 1
    25b8:	0e 94 b2 1d 	call	0x3b64	; 0x3b64 <strchr>
    25bc:	cf 70       	andi	r28, 0x0F	; 15
    25be:	ec 2f       	mov	r30, r28
    25c0:	f0 e0       	ldi	r31, 0x00	; 0
    25c2:	e7 5d       	subi	r30, 0xD7	; 215
    25c4:	fe 4f       	sbci	r31, 0xFE	; 254
    25c6:	20 81       	ld	r18, Z
    25c8:	fc 01       	movw	r30, r24
    25ca:	20 83       	st	Z, r18
    25cc:	68 e5       	ldi	r22, 0x58	; 88
    25ce:	70 e0       	ldi	r23, 0x00	; 0
    25d0:	8b e3       	ldi	r24, 0x3B	; 59
    25d2:	91 e0       	ldi	r25, 0x01	; 1
    25d4:	0e 94 b2 1d 	call	0x3b64	; 0x3b64 <strchr>
    25d8:	c0 91 23 01 	lds	r28, 0x0123
    25dc:	ac 2f       	mov	r26, r28
    25de:	a2 95       	swap	r26
    25e0:	af 70       	andi	r26, 0x0F	; 15
    25e2:	b0 e0       	ldi	r27, 0x00	; 0
    25e4:	a7 5d       	subi	r26, 0xD7	; 215
    25e6:	be 4f       	sbci	r27, 0xFE	; 254
    25e8:	2c 91       	ld	r18, X
    25ea:	fc 01       	movw	r30, r24
    25ec:	20 83       	st	Z, r18
    25ee:	68 e5       	ldi	r22, 0x58	; 88
    25f0:	70 e0       	ldi	r23, 0x00	; 0
    25f2:	8b e3       	ldi	r24, 0x3B	; 59
    25f4:	91 e0       	ldi	r25, 0x01	; 1
    25f6:	0e 94 b2 1d 	call	0x3b64	; 0x3b64 <strchr>
    25fa:	cf 70       	andi	r28, 0x0F	; 15
    25fc:	ec 2f       	mov	r30, r28
    25fe:	f0 e0       	ldi	r31, 0x00	; 0
    2600:	e7 5d       	subi	r30, 0xD7	; 215
    2602:	fe 4f       	sbci	r31, 0xFE	; 254
    2604:	20 81       	ld	r18, Z
    2606:	fc 01       	movw	r30, r24
    2608:	20 83       	st	Z, r18
    260a:	68 e5       	ldi	r22, 0x58	; 88
    260c:	70 e0       	ldi	r23, 0x00	; 0
    260e:	8b e3       	ldi	r24, 0x3B	; 59
    2610:	91 e0       	ldi	r25, 0x01	; 1
    2612:	0e 94 b2 1d 	call	0x3b64	; 0x3b64 <strchr>
    2616:	c0 91 25 01 	lds	r28, 0x0125
    261a:	d0 91 26 01 	lds	r29, 0x0126
    261e:	fe 01       	movw	r30, r28
    2620:	ee 27       	eor	r30, r30
    2622:	ff 70       	andi	r31, 0x0F	; 15
    2624:	ef 2f       	mov	r30, r31
    2626:	ff 27       	eor	r31, r31
    2628:	e7 5d       	subi	r30, 0xD7	; 215
    262a:	fe 4f       	sbci	r31, 0xFE	; 254
    262c:	20 81       	ld	r18, Z
    262e:	fc 01       	movw	r30, r24
    2630:	20 83       	st	Z, r18
    2632:	68 e5       	ldi	r22, 0x58	; 88
    2634:	70 e0       	ldi	r23, 0x00	; 0
    2636:	8b e3       	ldi	r24, 0x3B	; 59
    2638:	91 e0       	ldi	r25, 0x01	; 1
    263a:	0e 94 b2 1d 	call	0x3b64	; 0x3b64 <strchr>
    263e:	fe 01       	movw	r30, r28
    2640:	e0 7f       	andi	r30, 0xF0	; 240
    2642:	ff 27       	eor	r31, r31
    2644:	f2 95       	swap	r31
    2646:	e2 95       	swap	r30
    2648:	ef 70       	andi	r30, 0x0F	; 15
    264a:	ef 27       	eor	r30, r31
    264c:	ff 70       	andi	r31, 0x0F	; 15
    264e:	ef 27       	eor	r30, r31
    2650:	e7 5d       	subi	r30, 0xD7	; 215
    2652:	fe 4f       	sbci	r31, 0xFE	; 254
    2654:	20 81       	ld	r18, Z
    2656:	fc 01       	movw	r30, r24
    2658:	20 83       	st	Z, r18
    265a:	68 e5       	ldi	r22, 0x58	; 88
    265c:	70 e0       	ldi	r23, 0x00	; 0
    265e:	8b e3       	ldi	r24, 0x3B	; 59
    2660:	91 e0       	ldi	r25, 0x01	; 1
    2662:	0e 94 b2 1d 	call	0x3b64	; 0x3b64 <strchr>
    2666:	cf 70       	andi	r28, 0x0F	; 15
    2668:	dd 27       	eor	r29, r29
    266a:	c7 5d       	subi	r28, 0xD7	; 215
    266c:	de 4f       	sbci	r29, 0xFE	; 254
    266e:	28 81       	ld	r18, Y
    2670:	fc 01       	movw	r30, r24
    2672:	20 83       	st	Z, r18
    2674:	85 e0       	ldi	r24, 0x05	; 5
    2676:	0e 94 da 00 	call	0x1b4	; 0x1b4 <_Z15read_steady_adch>
    267a:	18 2f       	mov	r17, r24
    267c:	68 e5       	ldi	r22, 0x58	; 88
    267e:	70 e0       	ldi	r23, 0x00	; 0
    2680:	8b e3       	ldi	r24, 0x3B	; 59
    2682:	91 e0       	ldi	r25, 0x01	; 1
    2684:	0e 94 b2 1d 	call	0x3b64	; 0x3b64 <strchr>
    2688:	fc 01       	movw	r30, r24
    268a:	c1 2f       	mov	r28, r17
    268c:	c2 95       	swap	r28
    268e:	cf 70       	andi	r28, 0x0F	; 15
    2690:	d0 e0       	ldi	r29, 0x00	; 0
    2692:	c7 5d       	subi	r28, 0xD7	; 215
    2694:	de 4f       	sbci	r29, 0xFE	; 254
    2696:	88 81       	ld	r24, Y
    2698:	80 83       	st	Z, r24
    269a:	68 e5       	ldi	r22, 0x58	; 88
    269c:	70 e0       	ldi	r23, 0x00	; 0
    269e:	8b e3       	ldi	r24, 0x3B	; 59
    26a0:	91 e0       	ldi	r25, 0x01	; 1
    26a2:	0e 94 b2 1d 	call	0x3b64	; 0x3b64 <strchr>
    26a6:	fc 01       	movw	r30, r24
    26a8:	1f 70       	andi	r17, 0x0F	; 15
    26aa:	a1 2f       	mov	r26, r17
    26ac:	b0 e0       	ldi	r27, 0x00	; 0
    26ae:	a7 5d       	subi	r26, 0xD7	; 215
    26b0:	be 4f       	sbci	r27, 0xFE	; 254
    26b2:	8c 91       	ld	r24, X
    26b4:	80 83       	st	Z, r24
    26b6:	20 e0       	ldi	r18, 0x00	; 0
    26b8:	a0 e5       	ldi	r26, 0x50	; 80
    26ba:	b1 e0       	ldi	r27, 0x01	; 1
    26bc:	40 e2       	ldi	r20, 0x20	; 32
    26be:	17 c0       	rjmp	.+46     	; 0x26ee <_Z15drawFuncLCAMenuP9CMenuItem+0x2e0>
    26c0:	82 2f       	mov	r24, r18
    26c2:	90 e0       	ldi	r25, 0x00	; 0
    26c4:	fc 01       	movw	r30, r24
    26c6:	e0 5b       	subi	r30, 0xB0	; 176
    26c8:	fe 4f       	sbci	r31, 0xFE	; 254
    26ca:	30 81       	ld	r19, Z
    26cc:	30 34       	cpi	r19, 0x40	; 64
    26ce:	21 f4       	brne	.+8      	; 0x26d8 <_Z15drawFuncLCAMenuP9CMenuItem+0x2ca>
    26d0:	fc 01       	movw	r30, r24
    26d2:	e0 5b       	subi	r30, 0xB0	; 176
    26d4:	fe 4f       	sbci	r31, 0xFE	; 254
    26d6:	40 83       	st	Z, r20
    26d8:	fc 01       	movw	r30, r24
    26da:	e5 5c       	subi	r30, 0xC5	; 197
    26dc:	fe 4f       	sbci	r31, 0xFE	; 254
    26de:	30 81       	ld	r19, Z
    26e0:	30 34       	cpi	r19, 0x40	; 64
    26e2:	21 f4       	brne	.+8      	; 0x26ec <_Z15drawFuncLCAMenuP9CMenuItem+0x2de>
    26e4:	fc 01       	movw	r30, r24
    26e6:	e5 5c       	subi	r30, 0xC5	; 197
    26e8:	fe 4f       	sbci	r31, 0xFE	; 254
    26ea:	40 83       	st	Z, r20
    26ec:	2f 5f       	subi	r18, 0xFF	; 255
    26ee:	fd 01       	movw	r30, r26
    26f0:	01 90       	ld	r0, Z+
    26f2:	00 20       	and	r0, r0
    26f4:	e9 f7       	brne	.-6      	; 0x26f0 <_Z15drawFuncLCAMenuP9CMenuItem+0x2e2>
    26f6:	31 97       	sbiw	r30, 0x01	; 1
    26f8:	e0 55       	subi	r30, 0x50	; 80
    26fa:	f1 40       	sbci	r31, 0x01	; 1
    26fc:	82 2f       	mov	r24, r18
    26fe:	90 e0       	ldi	r25, 0x00	; 0
    2700:	8e 17       	cp	r24, r30
    2702:	9f 07       	cpc	r25, r31
    2704:	e8 f2       	brcs	.-70     	; 0x26c0 <_Z15drawFuncLCAMenuP9CMenuItem+0x2b2>
    2706:	45 e6       	ldi	r20, 0x65	; 101
    2708:	51 e0       	ldi	r21, 0x01	; 1
    270a:	6b e3       	ldi	r22, 0x3B	; 59
    270c:	71 e0       	ldi	r23, 0x01	; 1
    270e:	80 e5       	ldi	r24, 0x50	; 80
    2710:	91 e0       	ldi	r25, 0x01	; 1
    2712:	4d da       	rcall	.-2918   	; 0x1bae <_Z11Str2DrawStrPhS_S_>
    2714:	85 e6       	ldi	r24, 0x65	; 101
    2716:	91 e0       	ldi	r25, 0x01	; 1
    2718:	73 da       	rcall	.-2842   	; 0x1c00 <_Z9DrawOnLCDPh>
    271a:	df 91       	pop	r29
    271c:	cf 91       	pop	r28
    271e:	1f 91       	pop	r17
    2720:	0f 91       	pop	r16
    2722:	ff 90       	pop	r15
    2724:	ef 90       	pop	r14
    2726:	08 95       	ret

00002728 <_Z8InitUartv>:
    2728:	10 92 9b 00 	sts	0x009B, r1
    272c:	88 e9       	ldi	r24, 0x98	; 152
    272e:	80 93 9a 00 	sts	0x009A, r24
    2732:	86 e2       	ldi	r24, 0x26	; 38
    2734:	80 93 9d 00 	sts	0x009D, r24
    2738:	10 92 98 00 	sts	0x0098, r1
    273c:	85 e0       	ldi	r24, 0x05	; 5
    273e:	80 93 99 00 	sts	0x0099, r24
    2742:	08 95       	ret

00002744 <_Z12SendCOMBytesPhc>:
    2744:	cf 93       	push	r28
    2746:	df 93       	push	r29
    2748:	f8 94       	cli
    274a:	66 23       	and	r22, r22
    274c:	81 f0       	breq	.+32     	; 0x276e <_Z12SendCOMBytesPhc+0x2a>
    274e:	28 2f       	mov	r18, r24
    2750:	a8 2f       	mov	r26, r24
    2752:	b9 2f       	mov	r27, r25
    2754:	eb e9       	ldi	r30, 0x9B	; 155
    2756:	f0 e0       	ldi	r31, 0x00	; 0
    2758:	cc e9       	ldi	r28, 0x9C	; 156
    275a:	d0 e0       	ldi	r29, 0x00	; 0
    275c:	80 81       	ld	r24, Z
    275e:	85 ff       	sbrs	r24, 5
    2760:	fd cf       	rjmp	.-6      	; 0x275c <_Z12SendCOMBytesPhc+0x18>
    2762:	8d 91       	ld	r24, X+
    2764:	88 83       	st	Y, r24
    2766:	8a 2f       	mov	r24, r26
    2768:	82 1b       	sub	r24, r18
    276a:	86 17       	cp	r24, r22
    276c:	b8 f3       	brcs	.-18     	; 0x275c <_Z12SendCOMBytesPhc+0x18>
    276e:	78 94       	sei
    2770:	df 91       	pop	r29
    2772:	cf 91       	pop	r28
    2774:	08 95       	ret

00002776 <_Z9WriteModePh>:
    2776:	61 e0       	ldi	r22, 0x01	; 1
    2778:	e5 cf       	rjmp	.-54     	; 0x2744 <_Z12SendCOMBytesPhc>
    277a:	08 95       	ret

0000277c <_Z15WriteEraseFlashPh>:
    277c:	0c 94 00 78 	jmp	0xf000	; 0xf000 <__data_load_end+0xb1ca>
    2780:	61 e0       	ldi	r22, 0x01	; 1
    2782:	e0 cf       	rjmp	.-64     	; 0x2744 <_Z12SendCOMBytesPhc>
    2784:	08 95       	ret

00002786 <_Z8ReadAmplPh>:
    2786:	cf 93       	push	r28
    2788:	df 93       	push	r29
    278a:	00 d0       	rcall	.+0      	; 0x278c <_Z8ReadAmplPh+0x6>
    278c:	00 d0       	rcall	.+0      	; 0x278e <_Z8ReadAmplPh+0x8>
    278e:	00 d0       	rcall	.+0      	; 0x2790 <_Z8ReadAmplPh+0xa>
    2790:	cd b7       	in	r28, 0x3d	; 61
    2792:	de b7       	in	r29, 0x3e	; 62
    2794:	85 e0       	ldi	r24, 0x05	; 5
    2796:	0e 94 cb 00 	call	0x196	; 0x196 <_Z8read_adch>
    279a:	98 2f       	mov	r25, r24
    279c:	92 95       	swap	r25
    279e:	9f 70       	andi	r25, 0x0F	; 15
    27a0:	90 5d       	subi	r25, 0xD0	; 208
    27a2:	9c 83       	std	Y+4, r25	; 0x04
    27a4:	8f 70       	andi	r24, 0x0F	; 15
    27a6:	80 5d       	subi	r24, 0xD0	; 208
    27a8:	8d 83       	std	Y+5, r24	; 0x05
    27aa:	83 e0       	ldi	r24, 0x03	; 3
    27ac:	8e 83       	std	Y+6, r24	; 0x06
    27ae:	66 e0       	ldi	r22, 0x06	; 6
    27b0:	ce 01       	movw	r24, r28
    27b2:	01 96       	adiw	r24, 0x01	; 1
    27b4:	c7 df       	rcall	.-114    	; 0x2744 <_Z12SendCOMBytesPhc>
    27b6:	26 96       	adiw	r28, 0x06	; 6
    27b8:	0f b6       	in	r0, 0x3f	; 63
    27ba:	f8 94       	cli
    27bc:	de bf       	out	0x3e, r29	; 62
    27be:	0f be       	out	0x3f, r0	; 63
    27c0:	cd bf       	out	0x3d, r28	; 61
    27c2:	df 91       	pop	r29
    27c4:	cf 91       	pop	r28
    27c6:	08 95       	ret

000027c8 <_Z10FindDevicePh>:
    27c8:	cf 93       	push	r28
    27ca:	df 93       	push	r29
    27cc:	1f 92       	push	r1
    27ce:	cd b7       	in	r28, 0x3d	; 61
    27d0:	de b7       	in	r29, 0x3e	; 62
    27d2:	8f ef       	ldi	r24, 0xFF	; 255
    27d4:	89 83       	std	Y+1, r24	; 0x01
    27d6:	61 e0       	ldi	r22, 0x01	; 1
    27d8:	ce 01       	movw	r24, r28
    27da:	01 96       	adiw	r24, 0x01	; 1
    27dc:	b3 df       	rcall	.-154    	; 0x2744 <_Z12SendCOMBytesPhc>
    27de:	64 e0       	ldi	r22, 0x04	; 4
    27e0:	89 e1       	ldi	r24, 0x19	; 25
    27e2:	93 e0       	ldi	r25, 0x03	; 3
    27e4:	af df       	rcall	.-162    	; 0x2744 <_Z12SendCOMBytesPhc>
    27e6:	83 e0       	ldi	r24, 0x03	; 3
    27e8:	89 83       	std	Y+1, r24	; 0x01
    27ea:	61 e0       	ldi	r22, 0x01	; 1
    27ec:	ce 01       	movw	r24, r28
    27ee:	01 96       	adiw	r24, 0x01	; 1
    27f0:	a9 df       	rcall	.-174    	; 0x2744 <_Z12SendCOMBytesPhc>
    27f2:	0f 90       	pop	r0
    27f4:	df 91       	pop	r29
    27f6:	cf 91       	pop	r28
    27f8:	08 95       	ret

000027fa <_Z17CheckComandFormatic>:
    27fa:	8e 30       	cpi	r24, 0x0E	; 14
    27fc:	91 05       	cpc	r25, r1
    27fe:	78 f4       	brcc	.+30     	; 0x281e <_Z17CheckComandFormatic+0x24>
    2800:	fc 01       	movw	r30, r24
    2802:	e8 51       	subi	r30, 0x18	; 24
    2804:	ff 4f       	sbci	r31, 0xFF	; 255
    2806:	84 91       	lpm	r24, Z
    2808:	28 2f       	mov	r18, r24
    280a:	30 e0       	ldi	r19, 0x00	; 0
    280c:	70 e0       	ldi	r23, 0x00	; 0
    280e:	62 50       	subi	r22, 0x02	; 2
    2810:	71 09       	sbc	r23, r1
    2812:	81 e0       	ldi	r24, 0x01	; 1
    2814:	26 17       	cp	r18, r22
    2816:	37 07       	cpc	r19, r23
    2818:	19 f0       	breq	.+6      	; 0x2820 <_Z17CheckComandFormatic+0x26>
    281a:	80 e0       	ldi	r24, 0x00	; 0
    281c:	08 95       	ret
    281e:	80 e0       	ldi	r24, 0x00	; 0
    2820:	08 95       	ret

00002822 <_Z7SendERRv>:
    2822:	cf 93       	push	r28
    2824:	df 93       	push	r29
    2826:	00 d0       	rcall	.+0      	; 0x2828 <_Z7SendERRv+0x6>
    2828:	cd b7       	in	r28, 0x3d	; 61
    282a:	de b7       	in	r29, 0x3e	; 62
    282c:	86 e1       	ldi	r24, 0x16	; 22
    282e:	89 83       	std	Y+1, r24	; 0x01
    2830:	83 e0       	ldi	r24, 0x03	; 3
    2832:	8a 83       	std	Y+2, r24	; 0x02
    2834:	62 e0       	ldi	r22, 0x02	; 2
    2836:	ce 01       	movw	r24, r28
    2838:	01 96       	adiw	r24, 0x01	; 1
    283a:	84 df       	rcall	.-248    	; 0x2744 <_Z12SendCOMBytesPhc>
    283c:	0f 90       	pop	r0
    283e:	0f 90       	pop	r0
    2840:	df 91       	pop	r29
    2842:	cf 91       	pop	r28
    2844:	08 95       	ret

00002846 <_Z6SendOkv>:
    2846:	cf 93       	push	r28
    2848:	df 93       	push	r29
    284a:	00 d0       	rcall	.+0      	; 0x284c <_Z6SendOkv+0x6>
    284c:	cd b7       	in	r28, 0x3d	; 61
    284e:	de b7       	in	r29, 0x3e	; 62
    2850:	86 e0       	ldi	r24, 0x06	; 6
    2852:	89 83       	std	Y+1, r24	; 0x01
    2854:	83 e0       	ldi	r24, 0x03	; 3
    2856:	8a 83       	std	Y+2, r24	; 0x02
    2858:	62 e0       	ldi	r22, 0x02	; 2
    285a:	ce 01       	movw	r24, r28
    285c:	01 96       	adiw	r24, 0x01	; 1
    285e:	72 df       	rcall	.-284    	; 0x2744 <_Z12SendCOMBytesPhc>
    2860:	0f 90       	pop	r0
    2862:	0f 90       	pop	r0
    2864:	df 91       	pop	r29
    2866:	cf 91       	pop	r28
    2868:	08 95       	ret

0000286a <_Z10WriteAFuncPh>:
    286a:	ef 92       	push	r14
    286c:	ff 92       	push	r15
    286e:	0f 93       	push	r16
    2870:	fc 01       	movw	r30, r24
    2872:	21 81       	ldd	r18, Z+1	; 0x01
    2874:	02 81       	ldd	r16, Z+2	; 0x02
    2876:	0f 70       	andi	r16, 0x0F	; 15
    2878:	f0 e1       	ldi	r31, 0x10	; 16
    287a:	2f 9f       	mul	r18, r31
    287c:	00 0d       	add	r16, r0
    287e:	11 24       	eor	r1, r1
    2880:	00 93 22 01 	sts	0x0122, r16
    2884:	40 91 25 01 	lds	r20, 0x0125
    2888:	50 91 26 01 	lds	r21, 0x0126
    288c:	0f 2e       	mov	r0, r31
    288e:	f0 ee       	ldi	r31, 0xE0	; 224
    2890:	ef 2e       	mov	r14, r31
    2892:	f4 e0       	ldi	r31, 0x04	; 4
    2894:	ff 2e       	mov	r15, r31
    2896:	f0 2d       	mov	r31, r0
    2898:	20 91 23 01 	lds	r18, 0x0123
    289c:	60 91 24 01 	lds	r22, 0x0124
    28a0:	80 91 27 01 	lds	r24, 0x0127
    28a4:	90 91 28 01 	lds	r25, 0x0128
    28a8:	eb dc       	rcall	.-1578   	; 0x2280 <_Z7LCA2outjhjhhPj>
    28aa:	c7 01       	movw	r24, r14
    28ac:	6b d6       	rcall	.+3286   	; 0x3584 <_Z5SendAPj>
    28ae:	cb df       	rcall	.-106    	; 0x2846 <_Z6SendOkv>
    28b0:	0f 91       	pop	r16
    28b2:	ff 90       	pop	r15
    28b4:	ef 90       	pop	r14
    28b6:	08 95       	ret

000028b8 <_Z8SaveCoefPh>:
    28b8:	60 e0       	ldi	r22, 0x00	; 0
    28ba:	70 e0       	ldi	r23, 0x00	; 0
    28bc:	87 ec       	ldi	r24, 0xC7	; 199
    28be:	94 e0       	ldi	r25, 0x04	; 4
    28c0:	0e 94 f5 0b 	call	0x17ea	; 0x17ea <_Z17SaveStateToEEPROMP12StateOfPlatePv>
    28c4:	c0 cf       	rjmp	.-128    	; 0x2846 <_Z6SendOkv>
    28c6:	08 95       	ret

000028c8 <__vector_30>:
    28c8:	1f 92       	push	r1
    28ca:	0f 92       	push	r0
    28cc:	0f b6       	in	r0, 0x3f	; 63
    28ce:	0f 92       	push	r0
    28d0:	11 24       	eor	r1, r1
    28d2:	0b b6       	in	r0, 0x3b	; 59
    28d4:	0f 92       	push	r0
    28d6:	1f 93       	push	r17
    28d8:	2f 93       	push	r18
    28da:	3f 93       	push	r19
    28dc:	4f 93       	push	r20
    28de:	5f 93       	push	r21
    28e0:	6f 93       	push	r22
    28e2:	7f 93       	push	r23
    28e4:	8f 93       	push	r24
    28e6:	9f 93       	push	r25
    28e8:	af 93       	push	r26
    28ea:	bf 93       	push	r27
    28ec:	cf 93       	push	r28
    28ee:	df 93       	push	r29
    28f0:	ef 93       	push	r30
    28f2:	ff 93       	push	r31
    28f4:	f8 94       	cli
    28f6:	c0 91 9c 00 	lds	r28, 0x009C
    28fa:	6c 2f       	mov	r22, r28
    28fc:	70 e0       	ldi	r23, 0x00	; 0
    28fe:	4e e0       	ldi	r20, 0x0E	; 14
    2900:	50 e0       	ldi	r21, 0x00	; 0
    2902:	86 ef       	ldi	r24, 0xF6	; 246
    2904:	90 e0       	ldi	r25, 0x00	; 0
    2906:	0e 94 8f 1d 	call	0x3b1e	; 0x3b1e <memchr_P>
    290a:	89 2b       	or	r24, r25
    290c:	19 f0       	breq	.+6      	; 0x2914 <__vector_30+0x4c>
    290e:	10 92 3b 03 	sts	0x033B, r1
    2912:	06 c0       	rjmp	.+12     	; 0x2920 <__vector_30+0x58>
    2914:	80 91 3b 03 	lds	r24, 0x033B
    2918:	80 32       	cpi	r24, 0x20	; 32
    291a:	11 f4       	brne	.+4      	; 0x2920 <__vector_30+0x58>
    291c:	10 92 3b 03 	sts	0x033B, r1
    2920:	60 91 3b 03 	lds	r22, 0x033B
    2924:	e6 2f       	mov	r30, r22
    2926:	f0 e0       	ldi	r31, 0x00	; 0
    2928:	e4 5c       	subi	r30, 0xC4	; 196
    292a:	fc 4f       	sbci	r31, 0xFC	; 252
    292c:	c0 83       	st	Z, r28
    292e:	11 e0       	ldi	r17, 0x01	; 1
    2930:	16 0f       	add	r17, r22
    2932:	10 93 3b 03 	sts	0x033B, r17
    2936:	c3 30       	cpi	r28, 0x03	; 3
    2938:	11 f5       	brne	.+68     	; 0x297e <__vector_30+0xb6>
    293a:	60 91 3c 03 	lds	r22, 0x033C
    293e:	70 e0       	ldi	r23, 0x00	; 0
    2940:	4e e0       	ldi	r20, 0x0E	; 14
    2942:	50 e0       	ldi	r21, 0x00	; 0
    2944:	86 ef       	ldi	r24, 0xF6	; 246
    2946:	90 e0       	ldi	r25, 0x00	; 0
    2948:	0e 94 8f 1d 	call	0x3b1e	; 0x3b1e <memchr_P>
    294c:	00 97       	sbiw	r24, 0x00	; 0
    294e:	b9 f0       	breq	.+46     	; 0x297e <__vector_30+0xb6>
    2950:	ec 01       	movw	r28, r24
    2952:	c6 5f       	subi	r28, 0xF6	; 246
    2954:	d0 40       	sbci	r29, 0x00	; 0
    2956:	61 2f       	mov	r22, r17
    2958:	ce 01       	movw	r24, r28
    295a:	4f df       	rcall	.-354    	; 0x27fa <_Z17CheckComandFormatic>
    295c:	88 23       	and	r24, r24
    295e:	61 f0       	breq	.+24     	; 0x2978 <__vector_30+0xb0>
    2960:	cc 0f       	add	r28, r28
    2962:	dd 1f       	adc	r29, r29
    2964:	c4 53       	subi	r28, 0x34	; 52
    2966:	df 4f       	sbci	r29, 0xFF	; 255
    2968:	fe 01       	movw	r30, r28
    296a:	25 91       	lpm	r18, Z+
    296c:	34 91       	lpm	r19, Z
    296e:	8c e3       	ldi	r24, 0x3C	; 60
    2970:	93 e0       	ldi	r25, 0x03	; 3
    2972:	f9 01       	movw	r30, r18
    2974:	09 95       	icall
    2976:	01 c0       	rjmp	.+2      	; 0x297a <__vector_30+0xb2>
    2978:	54 df       	rcall	.-344    	; 0x2822 <_Z7SendERRv>
    297a:	10 92 3b 03 	sts	0x033B, r1
    297e:	78 94       	sei
    2980:	ff 91       	pop	r31
    2982:	ef 91       	pop	r30
    2984:	df 91       	pop	r29
    2986:	cf 91       	pop	r28
    2988:	bf 91       	pop	r27
    298a:	af 91       	pop	r26
    298c:	9f 91       	pop	r25
    298e:	8f 91       	pop	r24
    2990:	7f 91       	pop	r23
    2992:	6f 91       	pop	r22
    2994:	5f 91       	pop	r21
    2996:	4f 91       	pop	r20
    2998:	3f 91       	pop	r19
    299a:	2f 91       	pop	r18
    299c:	1f 91       	pop	r17
    299e:	0f 90       	pop	r0
    29a0:	0b be       	out	0x3b, r0	; 59
    29a2:	0f 90       	pop	r0
    29a4:	0f be       	out	0x3f, r0	; 63
    29a6:	0f 90       	pop	r0
    29a8:	1f 90       	pop	r1
    29aa:	18 95       	reti

000029ac <_Z8data2LCAPh>:
    29ac:	ef 92       	push	r14
    29ae:	ff 92       	push	r15
    29b0:	0f 93       	push	r16
    29b2:	fc 01       	movw	r30, r24
    29b4:	20 81       	ld	r18, Z
    29b6:	2f 70       	andi	r18, 0x0F	; 15
    29b8:	30 e0       	ldi	r19, 0x00	; 0
    29ba:	32 2f       	mov	r19, r18
    29bc:	22 27       	eor	r18, r18
    29be:	81 81       	ldd	r24, Z+1	; 0x01
    29c0:	40 e1       	ldi	r20, 0x10	; 16
    29c2:	84 9f       	mul	r24, r20
    29c4:	c0 01       	movw	r24, r0
    29c6:	11 24       	eor	r1, r1
    29c8:	99 27       	eor	r25, r25
    29ca:	82 0f       	add	r24, r18
    29cc:	93 1f       	adc	r25, r19
    29ce:	22 81       	ldd	r18, Z+2	; 0x02
    29d0:	2f 70       	andi	r18, 0x0F	; 15
    29d2:	82 0f       	add	r24, r18
    29d4:	91 1d       	adc	r25, r1
    29d6:	90 93 28 01 	sts	0x0128, r25
    29da:	80 93 27 01 	sts	0x0127, r24
    29de:	23 81       	ldd	r18, Z+3	; 0x03
    29e0:	64 81       	ldd	r22, Z+4	; 0x04
    29e2:	6f 70       	andi	r22, 0x0F	; 15
    29e4:	70 e1       	ldi	r23, 0x10	; 16
    29e6:	27 9f       	mul	r18, r23
    29e8:	60 0d       	add	r22, r0
    29ea:	11 24       	eor	r1, r1
    29ec:	60 93 24 01 	sts	0x0124, r22
    29f0:	25 81       	ldd	r18, Z+5	; 0x05
    29f2:	2f 70       	andi	r18, 0x0F	; 15
    29f4:	30 e0       	ldi	r19, 0x00	; 0
    29f6:	32 2f       	mov	r19, r18
    29f8:	22 27       	eor	r18, r18
    29fa:	46 81       	ldd	r20, Z+6	; 0x06
    29fc:	70 e1       	ldi	r23, 0x10	; 16
    29fe:	47 9f       	mul	r20, r23
    2a00:	a0 01       	movw	r20, r0
    2a02:	11 24       	eor	r1, r1
    2a04:	55 27       	eor	r21, r21
    2a06:	42 0f       	add	r20, r18
    2a08:	53 1f       	adc	r21, r19
    2a0a:	27 81       	ldd	r18, Z+7	; 0x07
    2a0c:	2f 70       	andi	r18, 0x0F	; 15
    2a0e:	42 0f       	add	r20, r18
    2a10:	51 1d       	adc	r21, r1
    2a12:	50 93 26 01 	sts	0x0126, r21
    2a16:	40 93 25 01 	sts	0x0125, r20
    2a1a:	30 85       	ldd	r19, Z+8	; 0x08
    2a1c:	21 85       	ldd	r18, Z+9	; 0x09
    2a1e:	2f 70       	andi	r18, 0x0F	; 15
    2a20:	70 e1       	ldi	r23, 0x10	; 16
    2a22:	37 9f       	mul	r19, r23
    2a24:	20 0d       	add	r18, r0
    2a26:	11 24       	eor	r1, r1
    2a28:	20 93 23 01 	sts	0x0123, r18
    2a2c:	32 85       	ldd	r19, Z+10	; 0x0a
    2a2e:	03 85       	ldd	r16, Z+11	; 0x0b
    2a30:	0f 70       	andi	r16, 0x0F	; 15
    2a32:	70 e1       	ldi	r23, 0x10	; 16
    2a34:	37 9f       	mul	r19, r23
    2a36:	00 0d       	add	r16, r0
    2a38:	11 24       	eor	r1, r1
    2a3a:	00 93 22 01 	sts	0x0122, r16
    2a3e:	0f 2e       	mov	r0, r31
    2a40:	f0 ee       	ldi	r31, 0xE0	; 224
    2a42:	ef 2e       	mov	r14, r31
    2a44:	f4 e0       	ldi	r31, 0x04	; 4
    2a46:	ff 2e       	mov	r15, r31
    2a48:	f0 2d       	mov	r31, r0
    2a4a:	1a dc       	rcall	.-1996   	; 0x2280 <_Z7LCA2outjhjhhPj>
    2a4c:	0f 91       	pop	r16
    2a4e:	ff 90       	pop	r15
    2a50:	ef 90       	pop	r14
    2a52:	08 95       	ret

00002a54 <_Z12WriteLCAFuncPh>:
    2a54:	01 96       	adiw	r24, 0x01	; 1
    2a56:	aa df       	rcall	.-172    	; 0x29ac <_Z8data2LCAPh>
    2a58:	80 ee       	ldi	r24, 0xE0	; 224
    2a5a:	94 e0       	ldi	r25, 0x04	; 4
    2a5c:	b9 d5       	rcall	.+2930   	; 0x35d0 <_Z11SendLCA2SelPh>
    2a5e:	f3 ce       	rjmp	.-538    	; 0x2846 <_Z6SendOkv>
    2a60:	08 95       	ret

00002a62 <_Z12ReadAllFlashPh>:
    2a62:	0f 93       	push	r16
    2a64:	1f 93       	push	r17
    2a66:	cf 93       	push	r28
    2a68:	df 93       	push	r29
    2a6a:	cd b7       	in	r28, 0x3d	; 61
    2a6c:	de b7       	in	r29, 0x3e	; 62
    2a6e:	28 97       	sbiw	r28, 0x08	; 8
    2a70:	0f b6       	in	r0, 0x3f	; 63
    2a72:	f8 94       	cli
    2a74:	de bf       	out	0x3e, r29	; 62
    2a76:	0f be       	out	0x3f, r0	; 63
    2a78:	cd bf       	out	0x3d, r28	; 61
    2a7a:	dc 01       	movw	r26, r24
    2a7c:	11 96       	adiw	r26, 0x01	; 1
    2a7e:	e9 ec       	ldi	r30, 0xC9	; 201
    2a80:	f4 e0       	ldi	r31, 0x04	; 4
    2a82:	80 ed       	ldi	r24, 0xD0	; 208
    2a84:	94 e0       	ldi	r25, 0x04	; 4
    2a86:	2d 91       	ld	r18, X+
    2a88:	2f 70       	andi	r18, 0x0F	; 15
    2a8a:	21 93       	st	Z+, r18
    2a8c:	e8 17       	cp	r30, r24
    2a8e:	f9 07       	cpc	r31, r25
    2a90:	d1 f7       	brne	.-12     	; 0x2a86 <_Z12ReadAllFlashPh+0x24>
    2a92:	89 ec       	ldi	r24, 0xC9	; 201
    2a94:	94 e0       	ldi	r25, 0x04	; 4
    2a96:	0e 94 af 02 	call	0x55e	; 0x55e <_Z10CharFtoIndPh>
    2a9a:	98 87       	std	Y+8, r25	; 0x08
    2a9c:	8f 83       	std	Y+7, r24	; 0x07
    2a9e:	8e 01       	movw	r16, r28
    2aa0:	0f 5f       	subi	r16, 0xFF	; 255
    2aa2:	1f 4f       	sbci	r17, 0xFF	; 255
    2aa4:	86 e0       	ldi	r24, 0x06	; 6
    2aa6:	f8 01       	movw	r30, r16
    2aa8:	11 92       	st	Z+, r1
    2aaa:	8a 95       	dec	r24
    2aac:	e9 f7       	brne	.-6      	; 0x2aa8 <_Z12ReadAllFlashPh+0x46>
    2aae:	46 e0       	ldi	r20, 0x06	; 6
    2ab0:	b8 01       	movw	r22, r16
    2ab2:	ce 01       	movw	r24, r28
    2ab4:	07 96       	adiw	r24, 0x07	; 7
    2ab6:	0e 94 16 03 	call	0x62c	; 0x62c <_Z18ReadDataInFlashIICPjPhh>
    2aba:	c8 01       	movw	r24, r16
    2abc:	77 df       	rcall	.-274    	; 0x29ac <_Z8data2LCAPh>
    2abe:	66 e0       	ldi	r22, 0x06	; 6
    2ac0:	c8 01       	movw	r24, r16
    2ac2:	40 de       	rcall	.-896    	; 0x2744 <_Z12SendCOMBytesPhc>
    2ac4:	28 96       	adiw	r28, 0x08	; 8
    2ac6:	0f b6       	in	r0, 0x3f	; 63
    2ac8:	f8 94       	cli
    2aca:	de bf       	out	0x3e, r29	; 62
    2acc:	0f be       	out	0x3f, r0	; 63
    2ace:	cd bf       	out	0x3d, r28	; 61
    2ad0:	df 91       	pop	r29
    2ad2:	cf 91       	pop	r28
    2ad4:	1f 91       	pop	r17
    2ad6:	0f 91       	pop	r16
    2ad8:	08 95       	ret

00002ada <_Z15WriteData2FlashPh>:
    2ada:	0f 93       	push	r16
    2adc:	1f 93       	push	r17
    2ade:	cf 93       	push	r28
    2ae0:	df 93       	push	r29
    2ae2:	cd b7       	in	r28, 0x3d	; 61
    2ae4:	de b7       	in	r29, 0x3e	; 62
    2ae6:	28 97       	sbiw	r28, 0x08	; 8
    2ae8:	0f b6       	in	r0, 0x3f	; 63
    2aea:	f8 94       	cli
    2aec:	de bf       	out	0x3e, r29	; 62
    2aee:	0f be       	out	0x3f, r0	; 63
    2af0:	cd bf       	out	0x3d, r28	; 61
    2af2:	8c 01       	movw	r16, r24
    2af4:	01 96       	adiw	r24, 0x01	; 1
    2af6:	0e 94 af 02 	call	0x55e	; 0x55e <_Z10CharFtoIndPh>
    2afa:	98 87       	std	Y+8, r25	; 0x08
    2afc:	8f 83       	std	Y+7, r24	; 0x07
    2afe:	c8 01       	movw	r24, r16
    2b00:	08 96       	adiw	r24, 0x08	; 8
    2b02:	54 df       	rcall	.-344    	; 0x29ac <_Z8data2LCAPh>
    2b04:	60 ee       	ldi	r22, 0xE0	; 224
    2b06:	74 e0       	ldi	r23, 0x04	; 4
    2b08:	8f 81       	ldd	r24, Y+7	; 0x07
    2b0a:	98 85       	ldd	r25, Y+8	; 0x08
    2b0c:	0e 94 0f 03 	call	0x61e	; 0x61e <_Z17WriteLCAout2FlashjPh>
    2b10:	8e 01       	movw	r16, r28
    2b12:	0f 5f       	subi	r16, 0xFF	; 255
    2b14:	1f 4f       	sbci	r17, 0xFF	; 255
    2b16:	86 e0       	ldi	r24, 0x06	; 6
    2b18:	f8 01       	movw	r30, r16
    2b1a:	11 92       	st	Z+, r1
    2b1c:	8a 95       	dec	r24
    2b1e:	e9 f7       	brne	.-6      	; 0x2b1a <_Z15WriteData2FlashPh+0x40>
    2b20:	46 e0       	ldi	r20, 0x06	; 6
    2b22:	b8 01       	movw	r22, r16
    2b24:	ce 01       	movw	r24, r28
    2b26:	07 96       	adiw	r24, 0x07	; 7
    2b28:	0e 94 16 03 	call	0x62c	; 0x62c <_Z18ReadDataInFlashIICPjPhh>
    2b2c:	46 e0       	ldi	r20, 0x06	; 6
    2b2e:	50 e0       	ldi	r21, 0x00	; 0
    2b30:	60 ee       	ldi	r22, 0xE0	; 224
    2b32:	74 e0       	ldi	r23, 0x04	; 4
    2b34:	c8 01       	movw	r24, r16
    2b36:	0e 94 9c 1d 	call	0x3b38	; 0x3b38 <memcmp>
    2b3a:	89 2b       	or	r24, r25
    2b3c:	11 f4       	brne	.+4      	; 0x2b42 <_Z15WriteData2FlashPh+0x68>
    2b3e:	83 de       	rcall	.-762    	; 0x2846 <_Z6SendOkv>
    2b40:	01 c0       	rjmp	.+2      	; 0x2b44 <_Z15WriteData2FlashPh+0x6a>
    2b42:	6f de       	rcall	.-802    	; 0x2822 <_Z7SendERRv>
    2b44:	28 96       	adiw	r28, 0x08	; 8
    2b46:	0f b6       	in	r0, 0x3f	; 63
    2b48:	f8 94       	cli
    2b4a:	de bf       	out	0x3e, r29	; 62
    2b4c:	0f be       	out	0x3f, r0	; 63
    2b4e:	cd bf       	out	0x3d, r28	; 61
    2b50:	df 91       	pop	r29
    2b52:	cf 91       	pop	r28
    2b54:	1f 91       	pop	r17
    2b56:	0f 91       	pop	r16
    2b58:	08 95       	ret

00002b5a <_Z13ChangeModePrkP12StateOfPlate>:
    2b5a:	0f 93       	push	r16
    2b5c:	1f 93       	push	r17
    2b5e:	cf 93       	push	r28
    2b60:	df 93       	push	r29
    2b62:	ec 01       	movw	r28, r24
    2b64:	8c 01       	movw	r16, r24
    2b66:	03 5f       	subi	r16, 0xF3	; 243
    2b68:	1f 4f       	sbci	r17, 0xFF	; 255
    2b6a:	b8 01       	movw	r22, r16
    2b6c:	8e ef       	ldi	r24, 0xFE	; 254
    2b6e:	9f e0       	ldi	r25, 0x0F	; 15
    2b70:	0e 94 b3 01 	call	0x366	; 0x366 <_Z13Read_ControlljPh>
    2b74:	89 81       	ldd	r24, Y+1	; 0x01
    2b76:	81 11       	cpse	r24, r1
    2b78:	05 c0       	rjmp	.+10     	; 0x2b84 <_Z13ChangeModePrkP12StateOfPlate+0x2a>
    2b7a:	88 89       	ldd	r24, Y+16	; 0x10
    2b7c:	88 7f       	andi	r24, 0xF8	; 248
    2b7e:	8c 5f       	subi	r24, 0xFC	; 252
    2b80:	88 8b       	std	Y+16, r24	; 0x10
    2b82:	04 c0       	rjmp	.+8      	; 0x2b8c <_Z13ChangeModePrkP12StateOfPlate+0x32>
    2b84:	88 89       	ldd	r24, Y+16	; 0x10
    2b86:	88 7f       	andi	r24, 0xF8	; 248
    2b88:	8a 5f       	subi	r24, 0xFA	; 250
    2b8a:	88 8b       	std	Y+16, r24	; 0x10
    2b8c:	b8 01       	movw	r22, r16
    2b8e:	8e ef       	ldi	r24, 0xFE	; 254
    2b90:	97 e0       	ldi	r25, 0x07	; 7
    2b92:	0e 94 98 01 	call	0x330	; 0x330 <_Z14Write_ControlljPh>
    2b96:	df 91       	pop	r29
    2b98:	cf 91       	pop	r28
    2b9a:	1f 91       	pop	r17
    2b9c:	0f 91       	pop	r16
    2b9e:	08 95       	ret

00002ba0 <_Z11SetOutLevelh>:
    2ba0:	cf 93       	push	r28
    2ba2:	c8 2f       	mov	r28, r24
    2ba4:	68 ed       	ldi	r22, 0xD8	; 216
    2ba6:	74 e0       	ldi	r23, 0x04	; 4
    2ba8:	8d ef       	ldi	r24, 0xFD	; 253
    2baa:	9f e0       	ldi	r25, 0x0F	; 15
    2bac:	0e 94 b3 01 	call	0x366	; 0x366 <_Z13Read_ControlljPh>
    2bb0:	eb ed       	ldi	r30, 0xDB	; 219
    2bb2:	f4 e0       	ldi	r31, 0x04	; 4
    2bb4:	cf 77       	andi	r28, 0x7F	; 127
    2bb6:	80 81       	ld	r24, Z
    2bb8:	80 78       	andi	r24, 0x80	; 128
    2bba:	c8 2b       	or	r28, r24
    2bbc:	c0 83       	st	Z, r28
    2bbe:	68 ed       	ldi	r22, 0xD8	; 216
    2bc0:	74 e0       	ldi	r23, 0x04	; 4
    2bc2:	8d ef       	ldi	r24, 0xFD	; 253
    2bc4:	97 e0       	ldi	r25, 0x07	; 7
    2bc6:	0e 94 98 01 	call	0x330	; 0x330 <_Z14Write_ControlljPh>
    2bca:	cf 91       	pop	r28
    2bcc:	08 95       	ret

00002bce <_Z20SolveFreqIndCorrCoefv>:
    2bce:	40 91 c9 04 	lds	r20, 0x04C9
    2bd2:	20 91 ca 04 	lds	r18, 0x04CA
    2bd6:	30 e0       	ldi	r19, 0x00	; 0
    2bd8:	c9 01       	movw	r24, r18
    2bda:	88 0f       	add	r24, r24
    2bdc:	99 1f       	adc	r25, r25
    2bde:	22 0f       	add	r18, r18
    2be0:	33 1f       	adc	r19, r19
    2be2:	22 0f       	add	r18, r18
    2be4:	33 1f       	adc	r19, r19
    2be6:	22 0f       	add	r18, r18
    2be8:	33 1f       	adc	r19, r19
    2bea:	82 0f       	add	r24, r18
    2bec:	93 1f       	adc	r25, r19
    2bee:	24 e6       	ldi	r18, 0x64	; 100
    2bf0:	42 9f       	mul	r20, r18
    2bf2:	80 0d       	add	r24, r0
    2bf4:	91 1d       	adc	r25, r1
    2bf6:	11 24       	eor	r1, r1
    2bf8:	20 91 cb 04 	lds	r18, 0x04CB
    2bfc:	82 0f       	add	r24, r18
    2bfe:	91 1d       	adc	r25, r1
    2c00:	0f 97       	sbiw	r24, 0x0f	; 15
    2c02:	65 e0       	ldi	r22, 0x05	; 5
    2c04:	70 e0       	ldi	r23, 0x00	; 0
    2c06:	74 d7       	rcall	.+3816   	; 0x3af0 <__divmodhi4>
    2c08:	cb 01       	movw	r24, r22
    2c0a:	08 95       	ret

00002c0c <_Z7SetCoefPh>:
    2c0c:	cf 93       	push	r28
    2c0e:	fc 01       	movw	r30, r24
    2c10:	21 81       	ldd	r18, Z+1	; 0x01
    2c12:	c2 81       	ldd	r28, Z+2	; 0x02
    2c14:	cf 70       	andi	r28, 0x0F	; 15
    2c16:	f0 e1       	ldi	r31, 0x10	; 16
    2c18:	2f 9f       	mul	r18, r31
    2c1a:	c0 0d       	add	r28, r0
    2c1c:	11 24       	eor	r1, r1
    2c1e:	8c 2f       	mov	r24, r28
    2c20:	bf df       	rcall	.-130    	; 0x2ba0 <_Z11SetOutLevelh>
    2c22:	d5 df       	rcall	.-86     	; 0x2bce <_Z20SolveFreqIndCorrCoefv>
    2c24:	fc 01       	movw	r30, r24
    2c26:	e9 53       	subi	r30, 0x39	; 57
    2c28:	fb 4f       	sbci	r31, 0xFB	; 251
    2c2a:	c0 a3       	std	Z+32, r28	; 0x20
    2c2c:	0c de       	rcall	.-1000   	; 0x2846 <_Z6SendOkv>
    2c2e:	cf 91       	pop	r28
    2c30:	08 95       	ret

00002c32 <_Z19SetOutLevelFromFreqv>:
    2c32:	cd df       	rcall	.-102    	; 0x2bce <_Z20SolveFreqIndCorrCoefv>
    2c34:	eb ed       	ldi	r30, 0xDB	; 219
    2c36:	f4 e0       	ldi	r31, 0x04	; 4
    2c38:	89 53       	subi	r24, 0x39	; 57
    2c3a:	9b 4f       	sbci	r25, 0xFB	; 251
    2c3c:	20 81       	ld	r18, Z
    2c3e:	20 78       	andi	r18, 0x80	; 128
    2c40:	dc 01       	movw	r26, r24
    2c42:	90 96       	adiw	r26, 0x20	; 32
    2c44:	8c 91       	ld	r24, X
    2c46:	82 2b       	or	r24, r18
    2c48:	80 83       	st	Z, r24
    2c4a:	68 ed       	ldi	r22, 0xD8	; 216
    2c4c:	74 e0       	ldi	r23, 0x04	; 4
    2c4e:	8d ef       	ldi	r24, 0xFD	; 253
    2c50:	97 e0       	ldi	r25, 0x07	; 7
    2c52:	0c 94 98 01 	jmp	0x330	; 0x330 <_Z14Write_ControlljPh>
    2c56:	08 95       	ret

00002c58 <_Z14WriteFreqToPrkPh>:
    2c58:	cf 93       	push	r28
    2c5a:	df 93       	push	r29
    2c5c:	cd b7       	in	r28, 0x3d	; 61
    2c5e:	de b7       	in	r29, 0x3e	; 62
    2c60:	61 97       	sbiw	r28, 0x11	; 17
    2c62:	0f b6       	in	r0, 0x3f	; 63
    2c64:	f8 94       	cli
    2c66:	de bf       	out	0x3e, r29	; 62
    2c68:	0f be       	out	0x3f, r0	; 63
    2c6a:	cd bf       	out	0x3d, r28	; 61
    2c6c:	fc 01       	movw	r30, r24
    2c6e:	be 01       	movw	r22, r28
    2c70:	6f 5f       	subi	r22, 0xFF	; 255
    2c72:	7f 4f       	sbci	r23, 0xFF	; 255
    2c74:	8d e0       	ldi	r24, 0x0D	; 13
    2c76:	db 01       	movw	r26, r22
    2c78:	1d 92       	st	X+, r1
    2c7a:	8a 95       	dec	r24
    2c7c:	e9 f7       	brne	.-6      	; 0x2c78 <_Z14WriteFreqToPrkPh+0x20>
    2c7e:	90 81       	ld	r25, Z
    2c80:	81 81       	ldd	r24, Z+1	; 0x01
    2c82:	b0 e1       	ldi	r27, 0x10	; 16
    2c84:	9b 9f       	mul	r25, r27
    2c86:	80 0d       	add	r24, r0
    2c88:	11 24       	eor	r1, r1
    2c8a:	8d 83       	std	Y+5, r24	; 0x05
    2c8c:	92 81       	ldd	r25, Z+2	; 0x02
    2c8e:	83 81       	ldd	r24, Z+3	; 0x03
    2c90:	20 e1       	ldi	r18, 0x10	; 16
    2c92:	92 9f       	mul	r25, r18
    2c94:	80 0d       	add	r24, r0
    2c96:	11 24       	eor	r1, r1
    2c98:	8e 83       	std	Y+6, r24	; 0x06
    2c9a:	94 81       	ldd	r25, Z+4	; 0x04
    2c9c:	85 81       	ldd	r24, Z+5	; 0x05
    2c9e:	a0 e1       	ldi	r26, 0x10	; 16
    2ca0:	9a 9f       	mul	r25, r26
    2ca2:	80 0d       	add	r24, r0
    2ca4:	11 24       	eor	r1, r1
    2ca6:	8f 83       	std	Y+7, r24	; 0x07
    2ca8:	86 81       	ldd	r24, Z+6	; 0x06
    2caa:	82 95       	swap	r24
    2cac:	80 7f       	andi	r24, 0xF0	; 240
    2cae:	88 87       	std	Y+8, r24	; 0x08
    2cb0:	87 ef       	ldi	r24, 0xF7	; 247
    2cb2:	97 e0       	ldi	r25, 0x07	; 7
    2cb4:	0e 94 98 01 	call	0x330	; 0x330 <_Z14Write_ControlljPh>
    2cb8:	be 01       	movw	r22, r28
    2cba:	6b 5f       	subi	r22, 0xFB	; 251
    2cbc:	7f 4f       	sbci	r23, 0xFF	; 255
    2cbe:	86 ef       	ldi	r24, 0xF6	; 246
    2cc0:	97 e0       	ldi	r25, 0x07	; 7
    2cc2:	0e 94 98 01 	call	0x330	; 0x330 <_Z14Write_ControlljPh>
    2cc6:	be 01       	movw	r22, r28
    2cc8:	67 5f       	subi	r22, 0xF7	; 247
    2cca:	7f 4f       	sbci	r23, 0xFF	; 255
    2ccc:	85 ef       	ldi	r24, 0xF5	; 245
    2cce:	97 e0       	ldi	r25, 0x07	; 7
    2cd0:	0e 94 98 01 	call	0x330	; 0x330 <_Z14Write_ControlljPh>
    2cd4:	84 e0       	ldi	r24, 0x04	; 4
    2cd6:	8e 87       	std	Y+14, r24	; 0x0e
    2cd8:	1f 86       	std	Y+15, r1	; 0x0f
    2cda:	18 8a       	std	Y+16, r1	; 0x10
    2cdc:	19 8a       	std	Y+17, r1	; 0x11
    2cde:	be 01       	movw	r22, r28
    2ce0:	62 5f       	subi	r22, 0xF2	; 242
    2ce2:	7f 4f       	sbci	r23, 0xFF	; 255
    2ce4:	84 ef       	ldi	r24, 0xF4	; 244
    2ce6:	97 e0       	ldi	r25, 0x07	; 7
    2ce8:	0e 94 98 01 	call	0x330	; 0x330 <_Z14Write_ControlljPh>
    2cec:	84 e1       	ldi	r24, 0x14	; 20
    2cee:	91 e0       	ldi	r25, 0x01	; 1
    2cf0:	01 97       	sbiw	r24, 0x01	; 1
    2cf2:	f1 f7       	brne	.-4      	; 0x2cf0 <_Z14WriteFreqToPrkPh+0x98>
    2cf4:	00 00       	nop
    2cf6:	81 9b       	sbis	0x10, 1	; 16
    2cf8:	fe cf       	rjmp	.-4      	; 0x2cf6 <_Z14WriteFreqToPrkPh+0x9e>
    2cfa:	9b df       	rcall	.-202    	; 0x2c32 <_Z19SetOutLevelFromFreqv>
    2cfc:	61 96       	adiw	r28, 0x11	; 17
    2cfe:	0f b6       	in	r0, 0x3f	; 63
    2d00:	f8 94       	cli
    2d02:	de bf       	out	0x3e, r29	; 62
    2d04:	0f be       	out	0x3f, r0	; 63
    2d06:	cd bf       	out	0x3d, r28	; 61
    2d08:	df 91       	pop	r29
    2d0a:	cf 91       	pop	r28
    2d0c:	08 95       	ret

00002d0e <_Z14okFuncZselMenuP9CMenuItem>:
    2d0e:	cf 93       	push	r28
    2d10:	df 93       	push	r29
    2d12:	ec 01       	movw	r28, r24
    2d14:	fc 01       	movw	r30, r24
    2d16:	e7 5b       	subi	r30, 0xB7	; 183
    2d18:	ff 4f       	sbci	r31, 0xFF	; 255
    2d1a:	80 81       	ld	r24, Z
    2d1c:	81 30       	cpi	r24, 0x01	; 1
    2d1e:	51 f4       	brne	.+20     	; 0x2d34 <_Z14okFuncZselMenuP9CMenuItem+0x26>
    2d20:	ce 01       	movw	r24, r28
    2d22:	0e 94 ac 09 	call	0x1358	; 0x1358 <_ZN9CMenuItem17getCursorPositionEv>
    2d26:	93 51       	subi	r25, 0x13	; 19
    2d28:	93 31       	cpi	r25, 0x13	; 19
    2d2a:	20 f4       	brcc	.+8      	; 0x2d34 <_Z14okFuncZselMenuP9CMenuItem+0x26>
    2d2c:	81 e2       	ldi	r24, 0x21	; 33
    2d2e:	95 e0       	ldi	r25, 0x05	; 5
    2d30:	50 d6       	rcall	.+3232   	; 0x39d2 <_Z13TuneZselAttenP9ZSELPARAM>
    2d32:	4c c0       	rjmp	.+152    	; 0x2dcc <_Z14okFuncZselMenuP9CMenuItem+0xbe>
    2d34:	fe 01       	movw	r30, r28
    2d36:	e7 5b       	subi	r30, 0xB7	; 183
    2d38:	ff 4f       	sbci	r31, 0xFF	; 255
    2d3a:	80 81       	ld	r24, Z
    2d3c:	82 30       	cpi	r24, 0x02	; 2
    2d3e:	09 f0       	breq	.+2      	; 0x2d42 <_Z14okFuncZselMenuP9CMenuItem+0x34>
    2d40:	41 c0       	rjmp	.+130    	; 0x2dc4 <_Z14okFuncZselMenuP9CMenuItem+0xb6>
    2d42:	ce 01       	movw	r24, r28
    2d44:	0e 94 ac 09 	call	0x1358	; 0x1358 <_ZN9CMenuItem17getCursorPositionEv>
    2d48:	94 50       	subi	r25, 0x04	; 4
    2d4a:	94 30       	cpi	r25, 0x04	; 4
    2d4c:	20 f4       	brcc	.+8      	; 0x2d56 <_Z14okFuncZselMenuP9CMenuItem+0x48>
    2d4e:	81 e2       	ldi	r24, 0x21	; 33
    2d50:	95 e0       	ldi	r25, 0x05	; 5
    2d52:	c6 d5       	rcall	.+2956   	; 0x38e0 <_Z11TuneZselCapP9ZSELPARAM>
    2d54:	3b c0       	rjmp	.+118    	; 0x2dcc <_Z14okFuncZselMenuP9CMenuItem+0xbe>
    2d56:	fe 01       	movw	r30, r28
    2d58:	e7 5b       	subi	r30, 0xB7	; 183
    2d5a:	ff 4f       	sbci	r31, 0xFF	; 255
    2d5c:	80 81       	ld	r24, Z
    2d5e:	82 30       	cpi	r24, 0x02	; 2
    2d60:	89 f5       	brne	.+98     	; 0x2dc4 <_Z14okFuncZselMenuP9CMenuItem+0xb6>
    2d62:	ce 01       	movw	r24, r28
    2d64:	0e 94 ac 09 	call	0x1358	; 0x1358 <_ZN9CMenuItem17getCursorPositionEv>
    2d68:	91 51       	subi	r25, 0x11	; 17
    2d6a:	91 31       	cpi	r25, 0x11	; 17
    2d6c:	58 f5       	brcc	.+86     	; 0x2dc4 <_Z14okFuncZselMenuP9CMenuItem+0xb6>
    2d6e:	89 ec       	ldi	r24, 0xC9	; 201
    2d70:	94 e0       	ldi	r25, 0x04	; 4
    2d72:	72 df       	rcall	.-284    	; 0x2c58 <_Z14WriteFreqToPrkPh>
    2d74:	40 91 c9 04 	lds	r20, 0x04C9
    2d78:	28 ee       	ldi	r18, 0xE8	; 232
    2d7a:	33 e0       	ldi	r19, 0x03	; 3
    2d7c:	42 9f       	mul	r20, r18
    2d7e:	c0 01       	movw	r24, r0
    2d80:	43 9f       	mul	r20, r19
    2d82:	90 0d       	add	r25, r0
    2d84:	11 24       	eor	r1, r1
    2d86:	20 91 ca 04 	lds	r18, 0x04CA
    2d8a:	34 e6       	ldi	r19, 0x64	; 100
    2d8c:	23 9f       	mul	r18, r19
    2d8e:	80 0d       	add	r24, r0
    2d90:	91 1d       	adc	r25, r1
    2d92:	11 24       	eor	r1, r1
    2d94:	20 91 cb 04 	lds	r18, 0x04CB
    2d98:	30 e0       	ldi	r19, 0x00	; 0
    2d9a:	a9 01       	movw	r20, r18
    2d9c:	44 0f       	add	r20, r20
    2d9e:	55 1f       	adc	r21, r21
    2da0:	22 0f       	add	r18, r18
    2da2:	33 1f       	adc	r19, r19
    2da4:	22 0f       	add	r18, r18
    2da6:	33 1f       	adc	r19, r19
    2da8:	22 0f       	add	r18, r18
    2daa:	33 1f       	adc	r19, r19
    2dac:	24 0f       	add	r18, r20
    2dae:	35 1f       	adc	r19, r21
    2db0:	82 0f       	add	r24, r18
    2db2:	93 1f       	adc	r25, r19
    2db4:	20 91 cc 04 	lds	r18, 0x04CC
    2db8:	61 e2       	ldi	r22, 0x21	; 33
    2dba:	75 e0       	ldi	r23, 0x05	; 5
    2dbc:	82 0f       	add	r24, r18
    2dbe:	91 1d       	adc	r25, r1
    2dc0:	e1 d5       	rcall	.+3010   	; 0x3984 <_Z11SetZselFreqiP9ZSELPARAM>
    2dc2:	04 c0       	rjmp	.+8      	; 0x2dcc <_Z14okFuncZselMenuP9CMenuItem+0xbe>
    2dc4:	60 e0       	ldi	r22, 0x00	; 0
    2dc6:	81 e2       	ldi	r24, 0x21	; 33
    2dc8:	95 e0       	ldi	r25, 0x05	; 5
    2dca:	04 d5       	rcall	.+2568   	; 0x37d4 <_Z12SetZselParamP9ZSELPARAM7regAddr>
    2dcc:	60 e0       	ldi	r22, 0x00	; 0
    2dce:	70 e0       	ldi	r23, 0x00	; 0
    2dd0:	87 ec       	ldi	r24, 0xC7	; 199
    2dd2:	94 e0       	ldi	r25, 0x04	; 4
    2dd4:	0e 94 f5 0b 	call	0x17ea	; 0x17ea <_Z17SaveStateToEEPROMP12StateOfPlatePv>
    2dd8:	ce 01       	movw	r24, r28
    2dda:	0e 94 1c 0a 	call	0x1438	; 0x1438 <_ZN9CMenuItem4drawEv>
    2dde:	df 91       	pop	r29
    2de0:	cf 91       	pop	r28
    2de2:	08 95       	ret

00002de4 <_Z10WriteFFuncPh>:
    2de4:	dc 01       	movw	r26, r24
    2de6:	11 96       	adiw	r26, 0x01	; 1
    2de8:	e9 ec       	ldi	r30, 0xC9	; 201
    2dea:	f4 e0       	ldi	r31, 0x04	; 4
    2dec:	80 ed       	ldi	r24, 0xD0	; 208
    2dee:	94 e0       	ldi	r25, 0x04	; 4
    2df0:	2d 91       	ld	r18, X+
    2df2:	2f 70       	andi	r18, 0x0F	; 15
    2df4:	21 93       	st	Z+, r18
    2df6:	e8 17       	cp	r30, r24
    2df8:	f9 07       	cpc	r31, r25
    2dfa:	d1 f7       	brne	.-12     	; 0x2df0 <_Z10WriteFFuncPh+0xc>
    2dfc:	89 ec       	ldi	r24, 0xC9	; 201
    2dfe:	94 e0       	ldi	r25, 0x04	; 4
    2e00:	2b df       	rcall	.-426    	; 0x2c58 <_Z14WriteFreqToPrkPh>
    2e02:	21 cd       	rjmp	.-1470   	; 0x2846 <_Z6SendOkv>
    2e04:	08 95       	ret

00002e06 <_Z13WriteFLCAFuncPh>:
    2e06:	ef 92       	push	r14
    2e08:	ff 92       	push	r15
    2e0a:	0f 93       	push	r16
    2e0c:	1f 93       	push	r17
    2e0e:	cf 93       	push	r28
    2e10:	df 93       	push	r29
    2e12:	cd b7       	in	r28, 0x3d	; 61
    2e14:	de b7       	in	r29, 0x3e	; 62
    2e16:	2e 97       	sbiw	r28, 0x0e	; 14
    2e18:	0f b6       	in	r0, 0x3f	; 63
    2e1a:	f8 94       	cli
    2e1c:	de bf       	out	0x3e, r29	; 62
    2e1e:	0f be       	out	0x3f, r0	; 63
    2e20:	cd bf       	out	0x3d, r28	; 61
    2e22:	dc 01       	movw	r26, r24
    2e24:	11 96       	adiw	r26, 0x01	; 1
    2e26:	e9 ec       	ldi	r30, 0xC9	; 201
    2e28:	f4 e0       	ldi	r31, 0x04	; 4
    2e2a:	80 ed       	ldi	r24, 0xD0	; 208
    2e2c:	94 e0       	ldi	r25, 0x04	; 4
    2e2e:	2d 91       	ld	r18, X+
    2e30:	2f 70       	andi	r18, 0x0F	; 15
    2e32:	21 93       	st	Z+, r18
    2e34:	e8 17       	cp	r30, r24
    2e36:	f9 07       	cpc	r31, r25
    2e38:	d1 f7       	brne	.-12     	; 0x2e2e <_Z13WriteFLCAFuncPh+0x28>
    2e3a:	89 ec       	ldi	r24, 0xC9	; 201
    2e3c:	94 e0       	ldi	r25, 0x04	; 4
    2e3e:	0c df       	rcall	.-488    	; 0x2c58 <_Z14WriteFreqToPrkPh>
    2e40:	89 ec       	ldi	r24, 0xC9	; 201
    2e42:	94 e0       	ldi	r25, 0x04	; 4
    2e44:	0e 94 af 02 	call	0x55e	; 0x55e <_Z10CharFtoIndPh>
    2e48:	60 ee       	ldi	r22, 0xE0	; 224
    2e4a:	74 e0       	ldi	r23, 0x04	; 4
    2e4c:	0e 94 61 03 	call	0x6c2	; 0x6c2 <_Z19ReadLCAoutFromFlashjPh>
    2e50:	80 ee       	ldi	r24, 0xE0	; 224
    2e52:	94 e0       	ldi	r25, 0x04	; 4
    2e54:	bd d3       	rcall	.+1914   	; 0x35d0 <_Z11SendLCA2SelPh>
    2e56:	f7 dc       	rcall	.-1554   	; 0x2846 <_Z6SendOkv>
    2e58:	8f ef       	ldi	r24, 0xFF	; 255
    2e5a:	95 e3       	ldi	r25, 0x35	; 53
    2e5c:	01 97       	sbiw	r24, 0x01	; 1
    2e5e:	f1 f7       	brne	.-4      	; 0x2e5c <_Z13WriteFLCAFuncPh+0x56>
    2e60:	00 c0       	rjmp	.+0      	; 0x2e62 <_Z13WriteFLCAFuncPh+0x5c>
    2e62:	00 00       	nop
    2e64:	0f 2e       	mov	r0, r31
    2e66:	f0 ee       	ldi	r31, 0xE0	; 224
    2e68:	ef 2e       	mov	r14, r31
    2e6a:	f4 e0       	ldi	r31, 0x04	; 4
    2e6c:	ff 2e       	mov	r15, r31
    2e6e:	f0 2d       	mov	r31, r0
    2e70:	02 e2       	ldi	r16, 0x22	; 34
    2e72:	11 e0       	ldi	r17, 0x01	; 1
    2e74:	23 e2       	ldi	r18, 0x23	; 35
    2e76:	31 e0       	ldi	r19, 0x01	; 1
    2e78:	45 e2       	ldi	r20, 0x25	; 37
    2e7a:	51 e0       	ldi	r21, 0x01	; 1
    2e7c:	64 e2       	ldi	r22, 0x24	; 36
    2e7e:	71 e0       	ldi	r23, 0x01	; 1
    2e80:	87 e2       	ldi	r24, 0x27	; 39
    2e82:	91 e0       	ldi	r25, 0x01	; 1
    2e84:	67 da       	rcall	.-2866   	; 0x2354 <_Z10outLCA2LCAPjPhS_S0_S0_S_>
    2e86:	fe 01       	movw	r30, r28
    2e88:	31 96       	adiw	r30, 0x01	; 1
    2e8a:	8e e0       	ldi	r24, 0x0E	; 14
    2e8c:	df 01       	movw	r26, r30
    2e8e:	1d 92       	st	X+, r1
    2e90:	8a 95       	dec	r24
    2e92:	e9 f7       	brne	.-6      	; 0x2e8e <_Z13WriteFLCAFuncPh+0x88>
    2e94:	85 e8       	ldi	r24, 0x85	; 133
    2e96:	89 83       	std	Y+1, r24	; 0x01
    2e98:	83 e0       	ldi	r24, 0x03	; 3
    2e9a:	8e 87       	std	Y+14, r24	; 0x0e
    2e9c:	80 91 27 01 	lds	r24, 0x0127
    2ea0:	90 91 28 01 	lds	r25, 0x0128
    2ea4:	9c 01       	movw	r18, r24
    2ea6:	22 27       	eor	r18, r18
    2ea8:	3f 70       	andi	r19, 0x0F	; 15
    2eaa:	20 e3       	ldi	r18, 0x30	; 48
    2eac:	23 0f       	add	r18, r19
    2eae:	2a 83       	std	Y+2, r18	; 0x02
    2eb0:	9c 01       	movw	r18, r24
    2eb2:	20 7f       	andi	r18, 0xF0	; 240
    2eb4:	33 27       	eor	r19, r19
    2eb6:	32 95       	swap	r19
    2eb8:	22 95       	swap	r18
    2eba:	2f 70       	andi	r18, 0x0F	; 15
    2ebc:	23 27       	eor	r18, r19
    2ebe:	3f 70       	andi	r19, 0x0F	; 15
    2ec0:	23 27       	eor	r18, r19
    2ec2:	20 5d       	subi	r18, 0xD0	; 208
    2ec4:	2b 83       	std	Y+3, r18	; 0x03
    2ec6:	8f 70       	andi	r24, 0x0F	; 15
    2ec8:	80 5d       	subi	r24, 0xD0	; 208
    2eca:	8c 83       	std	Y+4, r24	; 0x04
    2ecc:	80 91 24 01 	lds	r24, 0x0124
    2ed0:	98 2f       	mov	r25, r24
    2ed2:	92 95       	swap	r25
    2ed4:	9f 70       	andi	r25, 0x0F	; 15
    2ed6:	90 5d       	subi	r25, 0xD0	; 208
    2ed8:	9d 83       	std	Y+5, r25	; 0x05
    2eda:	8f 70       	andi	r24, 0x0F	; 15
    2edc:	80 5d       	subi	r24, 0xD0	; 208
    2ede:	8e 83       	std	Y+6, r24	; 0x06
    2ee0:	80 91 25 01 	lds	r24, 0x0125
    2ee4:	90 91 26 01 	lds	r25, 0x0126
    2ee8:	9c 01       	movw	r18, r24
    2eea:	22 27       	eor	r18, r18
    2eec:	3f 70       	andi	r19, 0x0F	; 15
    2eee:	20 e3       	ldi	r18, 0x30	; 48
    2ef0:	23 0f       	add	r18, r19
    2ef2:	2f 83       	std	Y+7, r18	; 0x07
    2ef4:	9c 01       	movw	r18, r24
    2ef6:	20 7f       	andi	r18, 0xF0	; 240
    2ef8:	33 27       	eor	r19, r19
    2efa:	32 95       	swap	r19
    2efc:	22 95       	swap	r18
    2efe:	2f 70       	andi	r18, 0x0F	; 15
    2f00:	23 27       	eor	r18, r19
    2f02:	3f 70       	andi	r19, 0x0F	; 15
    2f04:	23 27       	eor	r18, r19
    2f06:	20 5d       	subi	r18, 0xD0	; 208
    2f08:	28 87       	std	Y+8, r18	; 0x08
    2f0a:	8f 70       	andi	r24, 0x0F	; 15
    2f0c:	80 5d       	subi	r24, 0xD0	; 208
    2f0e:	89 87       	std	Y+9, r24	; 0x09
    2f10:	80 91 23 01 	lds	r24, 0x0123
    2f14:	98 2f       	mov	r25, r24
    2f16:	92 95       	swap	r25
    2f18:	9f 70       	andi	r25, 0x0F	; 15
    2f1a:	90 5d       	subi	r25, 0xD0	; 208
    2f1c:	9a 87       	std	Y+10, r25	; 0x0a
    2f1e:	8f 70       	andi	r24, 0x0F	; 15
    2f20:	80 5d       	subi	r24, 0xD0	; 208
    2f22:	8b 87       	std	Y+11, r24	; 0x0b
    2f24:	80 91 22 01 	lds	r24, 0x0122
    2f28:	98 2f       	mov	r25, r24
    2f2a:	92 95       	swap	r25
    2f2c:	9f 70       	andi	r25, 0x0F	; 15
    2f2e:	90 5d       	subi	r25, 0xD0	; 208
    2f30:	9c 87       	std	Y+12, r25	; 0x0c
    2f32:	8f 70       	andi	r24, 0x0F	; 15
    2f34:	80 5d       	subi	r24, 0xD0	; 208
    2f36:	8d 87       	std	Y+13, r24	; 0x0d
    2f38:	8f ef       	ldi	r24, 0xFF	; 255
    2f3a:	9b e6       	ldi	r25, 0x6B	; 107
    2f3c:	01 97       	sbiw	r24, 0x01	; 1
    2f3e:	f1 f7       	brne	.-4      	; 0x2f3c <_Z13WriteFLCAFuncPh+0x136>
    2f40:	00 c0       	rjmp	.+0      	; 0x2f42 <_Z13WriteFLCAFuncPh+0x13c>
    2f42:	00 00       	nop
    2f44:	6e e0       	ldi	r22, 0x0E	; 14
    2f46:	ce 01       	movw	r24, r28
    2f48:	01 96       	adiw	r24, 0x01	; 1
    2f4a:	fc db       	rcall	.-2056   	; 0x2744 <_Z12SendCOMBytesPhc>
    2f4c:	2e 96       	adiw	r28, 0x0e	; 14
    2f4e:	0f b6       	in	r0, 0x3f	; 63
    2f50:	f8 94       	cli
    2f52:	de bf       	out	0x3e, r29	; 62
    2f54:	0f be       	out	0x3f, r0	; 63
    2f56:	cd bf       	out	0x3d, r28	; 61
    2f58:	df 91       	pop	r29
    2f5a:	cf 91       	pop	r28
    2f5c:	1f 91       	pop	r17
    2f5e:	0f 91       	pop	r16
    2f60:	ff 90       	pop	r15
    2f62:	ef 90       	pop	r14
    2f64:	08 95       	ret

00002f66 <_Z10DetFreqIndPh>:
    2f66:	fc 01       	movw	r30, r24
    2f68:	90 81       	ld	r25, Z
    2f6a:	81 81       	ldd	r24, Z+1	; 0x01
    2f6c:	29 2f       	mov	r18, r25
    2f6e:	30 e0       	ldi	r19, 0x00	; 0
    2f70:	a9 01       	movw	r20, r18
    2f72:	44 0f       	add	r20, r20
    2f74:	55 1f       	adc	r21, r21
    2f76:	22 0f       	add	r18, r18
    2f78:	33 1f       	adc	r19, r19
    2f7a:	22 0f       	add	r18, r18
    2f7c:	33 1f       	adc	r19, r19
    2f7e:	22 0f       	add	r18, r18
    2f80:	33 1f       	adc	r19, r19
    2f82:	24 0f       	add	r18, r20
    2f84:	35 1f       	adc	r19, r21
    2f86:	28 0f       	add	r18, r24
    2f88:	31 1d       	adc	r19, r1
    2f8a:	2e 31       	cpi	r18, 0x1E	; 30
    2f8c:	31 05       	cpc	r19, r1
    2f8e:	59 f0       	breq	.+22     	; 0x2fa6 <_Z10DetFreqIndPh+0x40>
    2f90:	21 30       	cpi	r18, 0x01	; 1
    2f92:	31 05       	cpc	r19, r1
    2f94:	51 f0       	breq	.+20     	; 0x2faa <_Z10DetFreqIndPh+0x44>
    2f96:	82 50       	subi	r24, 0x02	; 2
    2f98:	99 0f       	add	r25, r25
    2f9a:	29 2f       	mov	r18, r25
    2f9c:	22 0f       	add	r18, r18
    2f9e:	22 0f       	add	r18, r18
    2fa0:	92 0f       	add	r25, r18
    2fa2:	89 0f       	add	r24, r25
    2fa4:	08 95       	ret
    2fa6:	8d e1       	ldi	r24, 0x1D	; 29
    2fa8:	08 95       	ret
    2faa:	80 e0       	ldi	r24, 0x00	; 0
    2fac:	08 95       	ret

00002fae <_Z11SaveDetCoefv>:
    2fae:	85 e0       	ldi	r24, 0x05	; 5
    2fb0:	0e 94 cb 00 	call	0x196	; 0x196 <_Z8read_adch>
    2fb4:	80 93 c5 04 	sts	0x04C5, r24
    2fb8:	89 ec       	ldi	r24, 0xC9	; 201
    2fba:	94 e0       	ldi	r25, 0x04	; 4
    2fbc:	d4 df       	rcall	.-88     	; 0x2f66 <_Z10DetFreqIndPh>
    2fbe:	65 ec       	ldi	r22, 0xC5	; 197
    2fc0:	74 e0       	ldi	r23, 0x04	; 4
    2fc2:	90 e0       	ldi	r25, 0x00	; 0
    2fc4:	0c 94 12 03 	jmp	0x624	; 0x624 <_Z17WriteDetCal2FlashjPh>
    2fc8:	08 95       	ret

00002fca <_Z16SaveDetectorCoefPh>:
    2fca:	f1 df       	rcall	.-30     	; 0x2fae <_Z11SaveDetCoefv>
    2fcc:	3c cc       	rjmp	.-1928   	; 0x2846 <_Z6SendOkv>
    2fce:	08 95       	ret

00002fd0 <_Z11ReadDetCoefv>:
    2fd0:	cf 93       	push	r28
    2fd2:	df 93       	push	r29
    2fd4:	1f 92       	push	r1
    2fd6:	cd b7       	in	r28, 0x3d	; 61
    2fd8:	de b7       	in	r29, 0x3e	; 62
    2fda:	89 ec       	ldi	r24, 0xC9	; 201
    2fdc:	94 e0       	ldi	r25, 0x04	; 4
    2fde:	c3 df       	rcall	.-122    	; 0x2f66 <_Z10DetFreqIndPh>
    2fe0:	be 01       	movw	r22, r28
    2fe2:	6f 5f       	subi	r22, 0xFF	; 255
    2fe4:	7f 4f       	sbci	r23, 0xFF	; 255
    2fe6:	90 e0       	ldi	r25, 0x00	; 0
    2fe8:	0e 94 71 03 	call	0x6e2	; 0x6e2 <_Z17ReadDetCalInFlashjPh>
    2fec:	89 81       	ldd	r24, Y+1	; 0x01
    2fee:	0f 90       	pop	r0
    2ff0:	df 91       	pop	r29
    2ff2:	cf 91       	pop	r28
    2ff4:	08 95       	ret

00002ff6 <_Z7InitPrkv>:
    2ff6:	60 e0       	ldi	r22, 0x00	; 0
    2ff8:	70 e0       	ldi	r23, 0x00	; 0
    2ffa:	87 ec       	ldi	r24, 0xC7	; 199
    2ffc:	94 e0       	ldi	r25, 0x04	; 4
    2ffe:	0e 94 d2 0d 	call	0x1ba4	; 0x1ba4 <_Z19ReadStateFromEEPROMP12StateOfPlatePv>
    3002:	0e 94 ce 01 	call	0x39c	; 0x39c <_Z10InitAlterav>
    3006:	60 ed       	ldi	r22, 0xD0	; 208
    3008:	74 e0       	ldi	r23, 0x04	; 4
    300a:	8f ef       	ldi	r24, 0xFF	; 255
    300c:	97 e0       	ldi	r25, 0x07	; 7
    300e:	0e 94 98 01 	call	0x330	; 0x330 <_Z14Write_ControlljPh>
    3012:	64 ed       	ldi	r22, 0xD4	; 212
    3014:	74 e0       	ldi	r23, 0x04	; 4
    3016:	8e ef       	ldi	r24, 0xFE	; 254
    3018:	97 e0       	ldi	r25, 0x07	; 7
    301a:	0e 94 98 01 	call	0x330	; 0x330 <_Z14Write_ControlljPh>
    301e:	68 ed       	ldi	r22, 0xD8	; 216
    3020:	74 e0       	ldi	r23, 0x04	; 4
    3022:	8d ef       	ldi	r24, 0xFD	; 253
    3024:	97 e0       	ldi	r25, 0x07	; 7
    3026:	0e 94 98 01 	call	0x330	; 0x330 <_Z14Write_ControlljPh>
    302a:	6c ed       	ldi	r22, 0xDC	; 220
    302c:	74 e0       	ldi	r23, 0x04	; 4
    302e:	8c ef       	ldi	r24, 0xFC	; 252
    3030:	97 e0       	ldi	r25, 0x07	; 7
    3032:	0e 94 98 01 	call	0x330	; 0x330 <_Z14Write_ControlljPh>
    3036:	8f ef       	ldi	r24, 0xFF	; 255
    3038:	9b e6       	ldi	r25, 0x6B	; 107
    303a:	01 97       	sbiw	r24, 0x01	; 1
    303c:	f1 f7       	brne	.-4      	; 0x303a <_Z7InitPrkv+0x44>
    303e:	00 c0       	rjmp	.+0      	; 0x3040 <_Z7InitPrkv+0x4a>
    3040:	00 00       	nop
    3042:	90 98       	cbi	0x12, 0	; 18
    3044:	8f ef       	ldi	r24, 0xFF	; 255
    3046:	95 e3       	ldi	r25, 0x35	; 53
    3048:	01 97       	sbiw	r24, 0x01	; 1
    304a:	f1 f7       	brne	.-4      	; 0x3048 <_Z7InitPrkv+0x52>
    304c:	00 c0       	rjmp	.+0      	; 0x304e <_Z7InitPrkv+0x58>
    304e:	00 00       	nop
    3050:	ac 9a       	sbi	0x15, 4	; 21
    3052:	8f ef       	ldi	r24, 0xFF	; 255
    3054:	9b e6       	ldi	r25, 0x6B	; 107
    3056:	01 97       	sbiw	r24, 0x01	; 1
    3058:	f1 f7       	brne	.-4      	; 0x3056 <_Z7InitPrkv+0x60>
    305a:	00 c0       	rjmp	.+0      	; 0x305c <_Z7InitPrkv+0x66>
    305c:	00 00       	nop
    305e:	89 ec       	ldi	r24, 0xC9	; 201
    3060:	94 e0       	ldi	r25, 0x04	; 4
    3062:	fa dd       	rcall	.-1036   	; 0x2c58 <_Z14WriteFreqToPrkPh>
    3064:	87 ec       	ldi	r24, 0xC7	; 199
    3066:	94 e0       	ldi	r25, 0x04	; 4
    3068:	78 cd       	rjmp	.-1296   	; 0x2b5a <_Z13ChangeModePrkP12StateOfPlate>
    306a:	08 95       	ret

0000306c <_Z7SetnOTPc>:
    306c:	81 11       	cpse	r24, r1
    306e:	06 c0       	rjmp	.+12     	; 0x307c <_Z7SetnOTPc+0x10>
    3070:	c7 98       	cbi	0x18, 7	; 24
    3072:	90 91 20 05 	lds	r25, 0x0520
    3076:	99 23       	and	r25, r25
    3078:	39 f0       	breq	.+14     	; 0x3088 <_Z7SetnOTPc+0x1c>
    307a:	09 c0       	rjmp	.+18     	; 0x308e <_Z7SetnOTPc+0x22>
    307c:	c7 9a       	sbi	0x18, 7	; 24
    307e:	90 91 20 05 	lds	r25, 0x0520
    3082:	99 23       	and	r25, r25
    3084:	19 f0       	breq	.+6      	; 0x308c <_Z7SetnOTPc+0x20>
    3086:	03 c0       	rjmp	.+6      	; 0x308e <_Z7SetnOTPc+0x22>
    3088:	c7 98       	cbi	0x18, 7	; 24
    308a:	01 c0       	rjmp	.+2      	; 0x308e <_Z7SetnOTPc+0x22>
    308c:	c7 9a       	sbi	0x18, 7	; 24
    308e:	90 91 20 05 	lds	r25, 0x0520
    3092:	91 30       	cpi	r25, 0x01	; 1
    3094:	21 f4       	brne	.+8      	; 0x309e <_Z7SetnOTPc+0x32>
    3096:	81 11       	cpse	r24, r1
    3098:	90 e0       	ldi	r25, 0x00	; 0
    309a:	89 2f       	mov	r24, r25
    309c:	d3 c3       	rjmp	.+1958   	; 0x3844 <_Z11SetZselOpenb>
    309e:	08 95       	ret

000030a0 <_Z22SetLebedSelFreqInFlashv>:
    30a0:	ef 92       	push	r14
    30a2:	ff 92       	push	r15
    30a4:	0f 93       	push	r16
    30a6:	1f 93       	push	r17
    30a8:	89 ec       	ldi	r24, 0xC9	; 201
    30aa:	94 e0       	ldi	r25, 0x04	; 4
    30ac:	0e 94 af 02 	call	0x55e	; 0x55e <_Z10CharFtoIndPh>
    30b0:	89 ec       	ldi	r24, 0xC9	; 201
    30b2:	94 e0       	ldi	r25, 0x04	; 4
    30b4:	0e 94 af 02 	call	0x55e	; 0x55e <_Z10CharFtoIndPh>
    30b8:	60 ee       	ldi	r22, 0xE0	; 224
    30ba:	74 e0       	ldi	r23, 0x04	; 4
    30bc:	0e 94 61 03 	call	0x6c2	; 0x6c2 <_Z19ReadLCAoutFromFlashjPh>
    30c0:	0f 2e       	mov	r0, r31
    30c2:	f0 ee       	ldi	r31, 0xE0	; 224
    30c4:	ef 2e       	mov	r14, r31
    30c6:	f4 e0       	ldi	r31, 0x04	; 4
    30c8:	ff 2e       	mov	r15, r31
    30ca:	f0 2d       	mov	r31, r0
    30cc:	02 e2       	ldi	r16, 0x22	; 34
    30ce:	11 e0       	ldi	r17, 0x01	; 1
    30d0:	23 e2       	ldi	r18, 0x23	; 35
    30d2:	31 e0       	ldi	r19, 0x01	; 1
    30d4:	45 e2       	ldi	r20, 0x25	; 37
    30d6:	51 e0       	ldi	r21, 0x01	; 1
    30d8:	64 e2       	ldi	r22, 0x24	; 36
    30da:	71 e0       	ldi	r23, 0x01	; 1
    30dc:	87 e2       	ldi	r24, 0x27	; 39
    30de:	91 e0       	ldi	r25, 0x01	; 1
    30e0:	39 d9       	rcall	.-3470   	; 0x2354 <_Z10outLCA2LCAPjPhS_S0_S0_S_>
    30e2:	81 e0       	ldi	r24, 0x01	; 1
    30e4:	c3 df       	rcall	.-122    	; 0x306c <_Z7SetnOTPc>
    30e6:	c7 01       	movw	r24, r14
    30e8:	73 d2       	rcall	.+1254   	; 0x35d0 <_Z11SendLCA2SelPh>
    30ea:	80 e0       	ldi	r24, 0x00	; 0
    30ec:	bf df       	rcall	.-130    	; 0x306c <_Z7SetnOTPc>
    30ee:	1f 91       	pop	r17
    30f0:	0f 91       	pop	r16
    30f2:	ff 90       	pop	r15
    30f4:	ef 90       	pop	r14
    30f6:	08 95       	ret

000030f8 <_Z14okFuncMainMenuP9CMenuItem>:
    30f8:	df 92       	push	r13
    30fa:	ef 92       	push	r14
    30fc:	ff 92       	push	r15
    30fe:	0f 93       	push	r16
    3100:	1f 93       	push	r17
    3102:	cf 93       	push	r28
    3104:	df 93       	push	r29
    3106:	ec 01       	movw	r28, r24
    3108:	fc 01       	movw	r30, r24
    310a:	e7 5b       	subi	r30, 0xB7	; 183
    310c:	ff 4f       	sbci	r31, 0xFF	; 255
    310e:	80 81       	ld	r24, Z
    3110:	81 30       	cpi	r24, 0x01	; 1
    3112:	09 f0       	breq	.+2      	; 0x3116 <_Z14okFuncMainMenuP9CMenuItem+0x1e>
    3114:	73 c0       	rjmp	.+230    	; 0x31fc <_Z14okFuncMainMenuP9CMenuItem+0x104>
    3116:	31 97       	sbiw	r30, 0x01	; 1
    3118:	80 81       	ld	r24, Z
    311a:	87 30       	cpi	r24, 0x07	; 7
    311c:	08 f0       	brcs	.+2      	; 0x3120 <_Z14okFuncMainMenuP9CMenuItem+0x28>
    311e:	50 c0       	rjmp	.+160    	; 0x31c0 <_Z14okFuncMainMenuP9CMenuItem+0xc8>
    3120:	60 e0       	ldi	r22, 0x00	; 0
    3122:	70 e0       	ldi	r23, 0x00	; 0
    3124:	87 ec       	ldi	r24, 0xC7	; 199
    3126:	94 e0       	ldi	r25, 0x04	; 4
    3128:	0e 94 f5 0b 	call	0x17ea	; 0x17ea <_Z17SaveStateToEEPROMP12StateOfPlatePv>
    312c:	89 ec       	ldi	r24, 0xC9	; 201
    312e:	94 e0       	ldi	r25, 0x04	; 4
    3130:	93 dd       	rcall	.-1242   	; 0x2c58 <_Z14WriteFreqToPrkPh>
    3132:	80 91 20 05 	lds	r24, 0x0520
    3136:	81 11       	cpse	r24, r1
    3138:	0a c0       	rjmp	.+20     	; 0x314e <_Z14okFuncMainMenuP9CMenuItem+0x56>
    313a:	b2 df       	rcall	.-156    	; 0x30a0 <_Z22SetLebedSelFreqInFlashv>
    313c:	49 df       	rcall	.-366    	; 0x2fd0 <_Z11ReadDetCoefv>
    313e:	80 93 e6 04 	sts	0x04E6, r24
    3142:	86 eb       	ldi	r24, 0xB6	; 182
    3144:	93 e0       	ldi	r25, 0x03	; 3
    3146:	90 93 2a 05 	sts	0x052A, r25
    314a:	80 93 29 05 	sts	0x0529, r24
    314e:	80 91 20 05 	lds	r24, 0x0520
    3152:	81 30       	cpi	r24, 0x01	; 1
    3154:	a9 f5       	brne	.+106    	; 0x31c0 <_Z14okFuncMainMenuP9CMenuItem+0xc8>
    3156:	20 91 c9 04 	lds	r18, 0x04C9
    315a:	88 ee       	ldi	r24, 0xE8	; 232
    315c:	93 e0       	ldi	r25, 0x03	; 3
    315e:	28 9f       	mul	r18, r24
    3160:	70 01       	movw	r14, r0
    3162:	29 9f       	mul	r18, r25
    3164:	f0 0c       	add	r15, r0
    3166:	11 24       	eor	r1, r1
    3168:	80 91 ca 04 	lds	r24, 0x04CA
    316c:	94 e6       	ldi	r25, 0x64	; 100
    316e:	89 9f       	mul	r24, r25
    3170:	e0 0c       	add	r14, r0
    3172:	f1 1c       	adc	r15, r1
    3174:	11 24       	eor	r1, r1
    3176:	20 91 cb 04 	lds	r18, 0x04CB
    317a:	30 e0       	ldi	r19, 0x00	; 0
    317c:	c9 01       	movw	r24, r18
    317e:	88 0f       	add	r24, r24
    3180:	99 1f       	adc	r25, r25
    3182:	22 0f       	add	r18, r18
    3184:	33 1f       	adc	r19, r19
    3186:	22 0f       	add	r18, r18
    3188:	33 1f       	adc	r19, r19
    318a:	22 0f       	add	r18, r18
    318c:	33 1f       	adc	r19, r19
    318e:	28 0f       	add	r18, r24
    3190:	39 1f       	adc	r19, r25
    3192:	e2 0e       	add	r14, r18
    3194:	f3 1e       	adc	r15, r19
    3196:	80 91 cc 04 	lds	r24, 0x04CC
    319a:	e8 0e       	add	r14, r24
    319c:	f1 1c       	adc	r15, r1
    319e:	08 ec       	ldi	r16, 0xC8	; 200
    31a0:	14 e0       	ldi	r17, 0x04	; 4
    31a2:	f8 01       	movw	r30, r16
    31a4:	d0 80       	ld	r13, Z
    31a6:	10 82       	st	Z, r1
    31a8:	87 ec       	ldi	r24, 0xC7	; 199
    31aa:	94 e0       	ldi	r25, 0x04	; 4
    31ac:	d6 dc       	rcall	.-1620   	; 0x2b5a <_Z13ChangeModePrkP12StateOfPlate>
    31ae:	61 e2       	ldi	r22, 0x21	; 33
    31b0:	75 e0       	ldi	r23, 0x05	; 5
    31b2:	c7 01       	movw	r24, r14
    31b4:	e7 d3       	rcall	.+1998   	; 0x3984 <_Z11SetZselFreqiP9ZSELPARAM>
    31b6:	f8 01       	movw	r30, r16
    31b8:	d0 82       	st	Z, r13
    31ba:	87 ec       	ldi	r24, 0xC7	; 199
    31bc:	94 e0       	ldi	r25, 0x04	; 4
    31be:	cd dc       	rcall	.-1638   	; 0x2b5a <_Z13ChangeModePrkP12StateOfPlate>
    31c0:	fe 01       	movw	r30, r28
    31c2:	e8 5b       	subi	r30, 0xB8	; 184
    31c4:	ff 4f       	sbci	r31, 0xFF	; 255
    31c6:	80 81       	ld	r24, Z
    31c8:	87 30       	cpi	r24, 0x07	; 7
    31ca:	c1 f4       	brne	.+48     	; 0x31fc <_Z14okFuncMainMenuP9CMenuItem+0x104>
    31cc:	e8 ec       	ldi	r30, 0xC8	; 200
    31ce:	f4 e0       	ldi	r31, 0x04	; 4
    31d0:	10 81       	ld	r17, Z
    31d2:	10 82       	st	Z, r1
    31d4:	87 ec       	ldi	r24, 0xC7	; 199
    31d6:	94 e0       	ldi	r25, 0x04	; 4
    31d8:	c0 dc       	rcall	.-1664   	; 0x2b5a <_Z13ChangeModePrkP12StateOfPlate>
    31da:	80 91 20 05 	lds	r24, 0x0520
    31de:	81 11       	cpse	r24, r1
    31e0:	01 c0       	rjmp	.+2      	; 0x31e4 <_Z14okFuncMainMenuP9CMenuItem+0xec>
    31e2:	2d d0       	rcall	.+90     	; 0x323e <_Z15TuneLvlLebedSelv>
    31e4:	80 91 20 05 	lds	r24, 0x0520
    31e8:	81 30       	cpi	r24, 0x01	; 1
    31ea:	19 f4       	brne	.+6      	; 0x31f2 <_Z14okFuncMainMenuP9CMenuItem+0xfa>
    31ec:	81 e2       	ldi	r24, 0x21	; 33
    31ee:	95 e0       	ldi	r25, 0x05	; 5
    31f0:	f0 d3       	rcall	.+2016   	; 0x39d2 <_Z13TuneZselAttenP9ZSELPARAM>
    31f2:	10 93 c8 04 	sts	0x04C8, r17
    31f6:	87 ec       	ldi	r24, 0xC7	; 199
    31f8:	94 e0       	ldi	r25, 0x04	; 4
    31fa:	af dc       	rcall	.-1698   	; 0x2b5a <_Z13ChangeModePrkP12StateOfPlate>
    31fc:	fe 01       	movw	r30, r28
    31fe:	e7 5b       	subi	r30, 0xB7	; 183
    3200:	ff 4f       	sbci	r31, 0xFF	; 255
    3202:	80 81       	ld	r24, Z
    3204:	82 30       	cpi	r24, 0x02	; 2
    3206:	69 f4       	brne	.+26     	; 0x3222 <_Z14okFuncMainMenuP9CMenuItem+0x12a>
    3208:	31 97       	sbiw	r30, 0x01	; 1
    320a:	80 81       	ld	r24, Z
    320c:	82 30       	cpi	r24, 0x02	; 2
    320e:	49 f4       	brne	.+18     	; 0x3222 <_Z14okFuncMainMenuP9CMenuItem+0x12a>
    3210:	ce 01       	movw	r24, r28
    3212:	0e 94 96 09 	call	0x132c	; 0x132c <_ZN9CMenuItem8getChildEv>
    3216:	90 93 2a 05 	sts	0x052A, r25
    321a:	80 93 29 05 	sts	0x0529, r24
    321e:	0e 94 1c 0a 	call	0x1438	; 0x1438 <_ZN9CMenuItem4drawEv>
    3222:	80 91 29 05 	lds	r24, 0x0529
    3226:	90 91 2a 05 	lds	r25, 0x052A
    322a:	0e 94 1c 0a 	call	0x1438	; 0x1438 <_ZN9CMenuItem4drawEv>
    322e:	df 91       	pop	r29
    3230:	cf 91       	pop	r28
    3232:	1f 91       	pop	r17
    3234:	0f 91       	pop	r16
    3236:	ff 90       	pop	r15
    3238:	ef 90       	pop	r14
    323a:	df 90       	pop	r13
    323c:	08 95       	ret

0000323e <_Z15TuneLvlLebedSelv>:
    323e:	ef 92       	push	r14
    3240:	ff 92       	push	r15
    3242:	0f 93       	push	r16
    3244:	cf 93       	push	r28
    3246:	df 93       	push	r29
    3248:	2b df       	rcall	.-426    	; 0x30a0 <_Z22SetLebedSelFreqInFlashv>
    324a:	c2 de       	rcall	.-636    	; 0x2fd0 <_Z11ReadDetCoefv>
    324c:	c8 2f       	mov	r28, r24
    324e:	85 e0       	ldi	r24, 0x05	; 5
    3250:	0e 94 da 00 	call	0x1b4	; 0x1b4 <_Z15read_steady_adch>
    3254:	80 93 c5 04 	sts	0x04C5, r24
    3258:	d0 e0       	ldi	r29, 0x00	; 0
    325a:	90 e0       	ldi	r25, 0x00	; 0
    325c:	8c 1b       	sub	r24, r28
    325e:	9d 0b       	sbc	r25, r29
    3260:	9c 01       	movw	r18, r24
    3262:	22 f4       	brpl	.+8      	; 0x326c <_Z15TuneLvlLebedSelv+0x2e>
    3264:	22 27       	eor	r18, r18
    3266:	33 27       	eor	r19, r19
    3268:	28 1b       	sub	r18, r24
    326a:	39 0b       	sbc	r19, r25
    326c:	23 30       	cpi	r18, 0x03	; 3
    326e:	31 05       	cpc	r19, r1
    3270:	0c f4       	brge	.+2      	; 0x3274 <_Z15TuneLvlLebedSelv+0x36>
    3272:	4b c0       	rjmp	.+150    	; 0x330a <_Z15TuneLvlLebedSelv+0xcc>
    3274:	18 16       	cp	r1, r24
    3276:	19 06       	cpc	r1, r25
    3278:	34 f4       	brge	.+12     	; 0x3286 <_Z15TuneLvlLebedSelv+0x48>
    327a:	80 91 22 01 	lds	r24, 0x0122
    327e:	8f 5f       	subi	r24, 0xFF	; 255
    3280:	80 93 22 01 	sts	0x0122, r24
    3284:	05 c0       	rjmp	.+10     	; 0x3290 <_Z15TuneLvlLebedSelv+0x52>
    3286:	80 91 22 01 	lds	r24, 0x0122
    328a:	81 50       	subi	r24, 0x01	; 1
    328c:	80 93 22 01 	sts	0x0122, r24
    3290:	00 91 22 01 	lds	r16, 0x0122
    3294:	00 23       	and	r16, r16
    3296:	c9 f1       	breq	.+114    	; 0x330a <_Z15TuneLvlLebedSelv+0xcc>
    3298:	0f 33       	cpi	r16, 0x3F	; 63
    329a:	b9 f1       	breq	.+110    	; 0x330a <_Z15TuneLvlLebedSelv+0xcc>
    329c:	40 91 25 01 	lds	r20, 0x0125
    32a0:	50 91 26 01 	lds	r21, 0x0126
    32a4:	0f 2e       	mov	r0, r31
    32a6:	f0 ee       	ldi	r31, 0xE0	; 224
    32a8:	ef 2e       	mov	r14, r31
    32aa:	f4 e0       	ldi	r31, 0x04	; 4
    32ac:	ff 2e       	mov	r15, r31
    32ae:	f0 2d       	mov	r31, r0
    32b0:	20 91 23 01 	lds	r18, 0x0123
    32b4:	60 91 24 01 	lds	r22, 0x0124
    32b8:	80 91 27 01 	lds	r24, 0x0127
    32bc:	90 91 28 01 	lds	r25, 0x0128
    32c0:	0e 94 40 11 	call	0x2280	; 0x2280 <_Z7LCA2outjhjhhPj>
    32c4:	c7 01       	movw	r24, r14
    32c6:	5e d1       	rcall	.+700    	; 0x3584 <_Z5SendAPj>
    32c8:	80 91 22 01 	lds	r24, 0x0122
    32cc:	85 fd       	sbrc	r24, 5
    32ce:	06 c0       	rjmp	.+12     	; 0x32dc <_Z15TuneLvlLebedSelv+0x9e>
    32d0:	86 e6       	ldi	r24, 0x66	; 102
    32d2:	95 e0       	ldi	r25, 0x05	; 5
    32d4:	01 97       	sbiw	r24, 0x01	; 1
    32d6:	f1 f7       	brne	.-4      	; 0x32d4 <_Z15TuneLvlLebedSelv+0x96>
    32d8:	00 00       	nop
    32da:	05 c0       	rjmp	.+10     	; 0x32e6 <_Z15TuneLvlLebedSelv+0xa8>
    32dc:	84 e1       	ldi	r24, 0x14	; 20
    32de:	91 e0       	ldi	r25, 0x01	; 1
    32e0:	01 97       	sbiw	r24, 0x01	; 1
    32e2:	f1 f7       	brne	.-4      	; 0x32e0 <_Z15TuneLvlLebedSelv+0xa2>
    32e4:	00 00       	nop
    32e6:	85 e0       	ldi	r24, 0x05	; 5
    32e8:	0e 94 da 00 	call	0x1b4	; 0x1b4 <_Z15read_steady_adch>
    32ec:	80 93 c5 04 	sts	0x04C5, r24
    32f0:	90 e0       	ldi	r25, 0x00	; 0
    32f2:	8c 1b       	sub	r24, r28
    32f4:	9d 0b       	sbc	r25, r29
    32f6:	9c 01       	movw	r18, r24
    32f8:	22 f4       	brpl	.+8      	; 0x3302 <_Z15TuneLvlLebedSelv+0xc4>
    32fa:	22 27       	eor	r18, r18
    32fc:	33 27       	eor	r19, r19
    32fe:	28 1b       	sub	r18, r24
    3300:	39 0b       	sbc	r19, r25
    3302:	23 30       	cpi	r18, 0x03	; 3
    3304:	31 05       	cpc	r19, r1
    3306:	0c f0       	brlt	.+2      	; 0x330a <_Z15TuneLvlLebedSelv+0xcc>
    3308:	b5 cf       	rjmp	.-150    	; 0x3274 <_Z15TuneLvlLebedSelv+0x36>
    330a:	df 91       	pop	r29
    330c:	cf 91       	pop	r28
    330e:	0f 91       	pop	r16
    3310:	ff 90       	pop	r15
    3312:	ef 90       	pop	r14
    3314:	08 95       	ret

00003316 <_Z14upFuncMainMenuP9CMenuItem>:
    3316:	0f 93       	push	r16
    3318:	1f 93       	push	r17
    331a:	cf 93       	push	r28
    331c:	df 93       	push	r29
    331e:	ec 01       	movw	r28, r24
    3320:	fc 01       	movw	r30, r24
    3322:	e7 5b       	subi	r30, 0xB7	; 183
    3324:	ff 4f       	sbci	r31, 0xFF	; 255
    3326:	80 81       	ld	r24, Z
    3328:	82 30       	cpi	r24, 0x02	; 2
    332a:	91 f4       	brne	.+36     	; 0x3350 <_Z14upFuncMainMenuP9CMenuItem+0x3a>
    332c:	31 97       	sbiw	r30, 0x01	; 1
    332e:	80 81       	ld	r24, Z
    3330:	88 23       	and	r24, r24
    3332:	c9 f1       	breq	.+114    	; 0x33a6 <_Z14upFuncMainMenuP9CMenuItem+0x90>
    3334:	fe 01       	movw	r30, r28
    3336:	e8 5b       	subi	r30, 0xB8	; 184
    3338:	ff 4f       	sbci	r31, 0xFF	; 255
    333a:	80 81       	ld	r24, Z
    333c:	81 30       	cpi	r24, 0x01	; 1
    333e:	09 f4       	brne	.+2      	; 0x3342 <_Z14upFuncMainMenuP9CMenuItem+0x2c>
    3340:	41 c0       	rjmp	.+130    	; 0x33c4 <_Z14upFuncMainMenuP9CMenuItem+0xae>
    3342:	fe 01       	movw	r30, r28
    3344:	e8 5b       	subi	r30, 0xB8	; 184
    3346:	ff 4f       	sbci	r31, 0xFF	; 255
    3348:	80 81       	ld	r24, Z
    334a:	83 30       	cpi	r24, 0x03	; 3
    334c:	41 f5       	brne	.+80     	; 0x339e <_Z14upFuncMainMenuP9CMenuItem+0x88>
    334e:	4b c0       	rjmp	.+150    	; 0x33e6 <_Z14upFuncMainMenuP9CMenuItem+0xd0>
    3350:	fe 01       	movw	r30, r28
    3352:	e7 5b       	subi	r30, 0xB7	; 183
    3354:	ff 4f       	sbci	r31, 0xFF	; 255
    3356:	80 81       	ld	r24, Z
    3358:	81 30       	cpi	r24, 0x01	; 1
    335a:	09 f5       	brne	.+66     	; 0x339e <_Z14upFuncMainMenuP9CMenuItem+0x88>
    335c:	0f 89       	ldd	r16, Y+23	; 0x17
    335e:	18 8d       	ldd	r17, Y+24	; 0x18
    3360:	ce 01       	movw	r24, r28
    3362:	0e 94 ac 09 	call	0x1358	; 0x1358 <_ZN9CMenuItem17getCursorPositionEv>
    3366:	09 0f       	add	r16, r25
    3368:	11 1d       	adc	r17, r1
    336a:	f8 01       	movw	r30, r16
    336c:	31 97       	sbiw	r30, 0x01	; 1
    336e:	80 81       	ld	r24, Z
    3370:	88 35       	cpi	r24, 0x58	; 88
    3372:	a9 f4       	brne	.+42     	; 0x339e <_Z14upFuncMainMenuP9CMenuItem+0x88>
    3374:	fe 01       	movw	r30, r28
    3376:	e8 5b       	subi	r30, 0xB8	; 184
    3378:	ff 4f       	sbci	r31, 0xFF	; 255
    337a:	80 81       	ld	r24, Z
    337c:	90 e0       	ldi	r25, 0x00	; 0
    337e:	fc 01       	movw	r30, r24
    3380:	e9 53       	subi	r30, 0x39	; 57
    3382:	fb 4f       	sbci	r31, 0xFB	; 251
    3384:	22 81       	ldd	r18, Z+2	; 0x02
    3386:	29 30       	cpi	r18, 0x09	; 9
    3388:	30 f4       	brcc	.+12     	; 0x3396 <_Z14upFuncMainMenuP9CMenuItem+0x80>
    338a:	fc 01       	movw	r30, r24
    338c:	e9 53       	subi	r30, 0x39	; 57
    338e:	fb 4f       	sbci	r31, 0xFB	; 251
    3390:	2f 5f       	subi	r18, 0xFF	; 255
    3392:	22 83       	std	Z+2, r18	; 0x02
    3394:	04 c0       	rjmp	.+8      	; 0x339e <_Z14upFuncMainMenuP9CMenuItem+0x88>
    3396:	fc 01       	movw	r30, r24
    3398:	e9 53       	subi	r30, 0x39	; 57
    339a:	fb 4f       	sbci	r31, 0xFB	; 251
    339c:	12 82       	std	Z+2, r1	; 0x02
    339e:	ce 01       	movw	r24, r28
    33a0:	0e 94 1c 0a 	call	0x1438	; 0x1438 <_ZN9CMenuItem4drawEv>
    33a4:	2e c0       	rjmp	.+92     	; 0x3402 <_Z14upFuncMainMenuP9CMenuItem+0xec>
    33a6:	e7 ec       	ldi	r30, 0xC7	; 199
    33a8:	f4 e0       	ldi	r31, 0x04	; 4
    33aa:	90 81       	ld	r25, Z
    33ac:	81 e0       	ldi	r24, 0x01	; 1
    33ae:	89 27       	eor	r24, r25
    33b0:	80 83       	st	Z, r24
    33b2:	5c de       	rcall	.-840    	; 0x306c <_Z7SetnOTPc>
    33b4:	fe 01       	movw	r30, r28
    33b6:	e7 5b       	subi	r30, 0xB7	; 183
    33b8:	ff 4f       	sbci	r31, 0xFF	; 255
    33ba:	80 81       	ld	r24, Z
    33bc:	82 30       	cpi	r24, 0x02	; 2
    33be:	09 f4       	brne	.+2      	; 0x33c2 <_Z14upFuncMainMenuP9CMenuItem+0xac>
    33c0:	b9 cf       	rjmp	.-142    	; 0x3334 <_Z14upFuncMainMenuP9CMenuItem+0x1e>
    33c2:	c6 cf       	rjmp	.-116    	; 0x3350 <_Z14upFuncMainMenuP9CMenuItem+0x3a>
    33c4:	e8 ec       	ldi	r30, 0xC8	; 200
    33c6:	f4 e0       	ldi	r31, 0x04	; 4
    33c8:	90 81       	ld	r25, Z
    33ca:	81 e0       	ldi	r24, 0x01	; 1
    33cc:	89 27       	eor	r24, r25
    33ce:	80 83       	st	Z, r24
    33d0:	87 ec       	ldi	r24, 0xC7	; 199
    33d2:	94 e0       	ldi	r25, 0x04	; 4
    33d4:	c2 db       	rcall	.-2172   	; 0x2b5a <_Z13ChangeModePrkP12StateOfPlate>
    33d6:	fe 01       	movw	r30, r28
    33d8:	e7 5b       	subi	r30, 0xB7	; 183
    33da:	ff 4f       	sbci	r31, 0xFF	; 255
    33dc:	80 81       	ld	r24, Z
    33de:	82 30       	cpi	r24, 0x02	; 2
    33e0:	09 f4       	brne	.+2      	; 0x33e4 <_Z14upFuncMainMenuP9CMenuItem+0xce>
    33e2:	af cf       	rjmp	.-162    	; 0x3342 <_Z14upFuncMainMenuP9CMenuItem+0x2c>
    33e4:	b5 cf       	rjmp	.-150    	; 0x3350 <_Z14upFuncMainMenuP9CMenuItem+0x3a>
    33e6:	e0 e2       	ldi	r30, 0x20	; 32
    33e8:	f5 e0       	ldi	r31, 0x05	; 5
    33ea:	81 e0       	ldi	r24, 0x01	; 1
    33ec:	90 81       	ld	r25, Z
    33ee:	91 11       	cpse	r25, r1
    33f0:	80 e0       	ldi	r24, 0x00	; 0
    33f2:	80 83       	st	Z, r24
    33f4:	60 e0       	ldi	r22, 0x00	; 0
    33f6:	70 e0       	ldi	r23, 0x00	; 0
    33f8:	87 ec       	ldi	r24, 0xC7	; 199
    33fa:	94 e0       	ldi	r25, 0x04	; 4
    33fc:	0e 94 f5 0b 	call	0x17ea	; 0x17ea <_Z17SaveStateToEEPROMP12StateOfPlatePv>
    3400:	a7 cf       	rjmp	.-178    	; 0x3350 <_Z14upFuncMainMenuP9CMenuItem+0x3a>
    3402:	df 91       	pop	r29
    3404:	cf 91       	pop	r28
    3406:	1f 91       	pop	r17
    3408:	0f 91       	pop	r16
    340a:	08 95       	ret

0000340c <_Z16downFuncMainMenuP9CMenuItem>:
    340c:	0f 93       	push	r16
    340e:	1f 93       	push	r17
    3410:	cf 93       	push	r28
    3412:	df 93       	push	r29
    3414:	ec 01       	movw	r28, r24
    3416:	fc 01       	movw	r30, r24
    3418:	e7 5b       	subi	r30, 0xB7	; 183
    341a:	ff 4f       	sbci	r31, 0xFF	; 255
    341c:	80 81       	ld	r24, Z
    341e:	82 30       	cpi	r24, 0x02	; 2
    3420:	91 f4       	brne	.+36     	; 0x3446 <_Z16downFuncMainMenuP9CMenuItem+0x3a>
    3422:	31 97       	sbiw	r30, 0x01	; 1
    3424:	80 81       	ld	r24, Z
    3426:	88 23       	and	r24, r24
    3428:	d1 f1       	breq	.+116    	; 0x349e <_Z16downFuncMainMenuP9CMenuItem+0x92>
    342a:	fe 01       	movw	r30, r28
    342c:	e8 5b       	subi	r30, 0xB8	; 184
    342e:	ff 4f       	sbci	r31, 0xFF	; 255
    3430:	80 81       	ld	r24, Z
    3432:	81 30       	cpi	r24, 0x01	; 1
    3434:	09 f4       	brne	.+2      	; 0x3438 <_Z16downFuncMainMenuP9CMenuItem+0x2c>
    3436:	42 c0       	rjmp	.+132    	; 0x34bc <_Z16downFuncMainMenuP9CMenuItem+0xb0>
    3438:	fe 01       	movw	r30, r28
    343a:	e8 5b       	subi	r30, 0xB8	; 184
    343c:	ff 4f       	sbci	r31, 0xFF	; 255
    343e:	80 81       	ld	r24, Z
    3440:	83 30       	cpi	r24, 0x03	; 3
    3442:	49 f5       	brne	.+82     	; 0x3496 <_Z16downFuncMainMenuP9CMenuItem+0x8a>
    3444:	4c c0       	rjmp	.+152    	; 0x34de <_Z16downFuncMainMenuP9CMenuItem+0xd2>
    3446:	fe 01       	movw	r30, r28
    3448:	e7 5b       	subi	r30, 0xB7	; 183
    344a:	ff 4f       	sbci	r31, 0xFF	; 255
    344c:	80 81       	ld	r24, Z
    344e:	81 30       	cpi	r24, 0x01	; 1
    3450:	11 f5       	brne	.+68     	; 0x3496 <_Z16downFuncMainMenuP9CMenuItem+0x8a>
    3452:	0f 89       	ldd	r16, Y+23	; 0x17
    3454:	18 8d       	ldd	r17, Y+24	; 0x18
    3456:	ce 01       	movw	r24, r28
    3458:	0e 94 ac 09 	call	0x1358	; 0x1358 <_ZN9CMenuItem17getCursorPositionEv>
    345c:	09 0f       	add	r16, r25
    345e:	11 1d       	adc	r17, r1
    3460:	f8 01       	movw	r30, r16
    3462:	31 97       	sbiw	r30, 0x01	; 1
    3464:	80 81       	ld	r24, Z
    3466:	88 35       	cpi	r24, 0x58	; 88
    3468:	b1 f4       	brne	.+44     	; 0x3496 <_Z16downFuncMainMenuP9CMenuItem+0x8a>
    346a:	fe 01       	movw	r30, r28
    346c:	e8 5b       	subi	r30, 0xB8	; 184
    346e:	ff 4f       	sbci	r31, 0xFF	; 255
    3470:	80 81       	ld	r24, Z
    3472:	90 e0       	ldi	r25, 0x00	; 0
    3474:	fc 01       	movw	r30, r24
    3476:	e9 53       	subi	r30, 0x39	; 57
    3478:	fb 4f       	sbci	r31, 0xFB	; 251
    347a:	22 81       	ldd	r18, Z+2	; 0x02
    347c:	22 23       	and	r18, r18
    347e:	31 f0       	breq	.+12     	; 0x348c <_Z16downFuncMainMenuP9CMenuItem+0x80>
    3480:	fc 01       	movw	r30, r24
    3482:	e9 53       	subi	r30, 0x39	; 57
    3484:	fb 4f       	sbci	r31, 0xFB	; 251
    3486:	21 50       	subi	r18, 0x01	; 1
    3488:	22 83       	std	Z+2, r18	; 0x02
    348a:	05 c0       	rjmp	.+10     	; 0x3496 <_Z16downFuncMainMenuP9CMenuItem+0x8a>
    348c:	fc 01       	movw	r30, r24
    348e:	e9 53       	subi	r30, 0x39	; 57
    3490:	fb 4f       	sbci	r31, 0xFB	; 251
    3492:	29 e0       	ldi	r18, 0x09	; 9
    3494:	22 83       	std	Z+2, r18	; 0x02
    3496:	ce 01       	movw	r24, r28
    3498:	0e 94 1c 0a 	call	0x1438	; 0x1438 <_ZN9CMenuItem4drawEv>
    349c:	2e c0       	rjmp	.+92     	; 0x34fa <_Z16downFuncMainMenuP9CMenuItem+0xee>
    349e:	e7 ec       	ldi	r30, 0xC7	; 199
    34a0:	f4 e0       	ldi	r31, 0x04	; 4
    34a2:	90 81       	ld	r25, Z
    34a4:	81 e0       	ldi	r24, 0x01	; 1
    34a6:	89 27       	eor	r24, r25
    34a8:	80 83       	st	Z, r24
    34aa:	e0 dd       	rcall	.-1088   	; 0x306c <_Z7SetnOTPc>
    34ac:	fe 01       	movw	r30, r28
    34ae:	e7 5b       	subi	r30, 0xB7	; 183
    34b0:	ff 4f       	sbci	r31, 0xFF	; 255
    34b2:	80 81       	ld	r24, Z
    34b4:	82 30       	cpi	r24, 0x02	; 2
    34b6:	09 f4       	brne	.+2      	; 0x34ba <_Z16downFuncMainMenuP9CMenuItem+0xae>
    34b8:	b8 cf       	rjmp	.-144    	; 0x342a <_Z16downFuncMainMenuP9CMenuItem+0x1e>
    34ba:	c5 cf       	rjmp	.-118    	; 0x3446 <_Z16downFuncMainMenuP9CMenuItem+0x3a>
    34bc:	e8 ec       	ldi	r30, 0xC8	; 200
    34be:	f4 e0       	ldi	r31, 0x04	; 4
    34c0:	90 81       	ld	r25, Z
    34c2:	81 e0       	ldi	r24, 0x01	; 1
    34c4:	89 27       	eor	r24, r25
    34c6:	80 83       	st	Z, r24
    34c8:	87 ec       	ldi	r24, 0xC7	; 199
    34ca:	94 e0       	ldi	r25, 0x04	; 4
    34cc:	46 db       	rcall	.-2420   	; 0x2b5a <_Z13ChangeModePrkP12StateOfPlate>
    34ce:	fe 01       	movw	r30, r28
    34d0:	e7 5b       	subi	r30, 0xB7	; 183
    34d2:	ff 4f       	sbci	r31, 0xFF	; 255
    34d4:	80 81       	ld	r24, Z
    34d6:	82 30       	cpi	r24, 0x02	; 2
    34d8:	09 f4       	brne	.+2      	; 0x34dc <_Z16downFuncMainMenuP9CMenuItem+0xd0>
    34da:	ae cf       	rjmp	.-164    	; 0x3438 <_Z16downFuncMainMenuP9CMenuItem+0x2c>
    34dc:	b4 cf       	rjmp	.-152    	; 0x3446 <_Z16downFuncMainMenuP9CMenuItem+0x3a>
    34de:	e0 e2       	ldi	r30, 0x20	; 32
    34e0:	f5 e0       	ldi	r31, 0x05	; 5
    34e2:	81 e0       	ldi	r24, 0x01	; 1
    34e4:	90 81       	ld	r25, Z
    34e6:	91 11       	cpse	r25, r1
    34e8:	80 e0       	ldi	r24, 0x00	; 0
    34ea:	80 83       	st	Z, r24
    34ec:	60 e0       	ldi	r22, 0x00	; 0
    34ee:	70 e0       	ldi	r23, 0x00	; 0
    34f0:	87 ec       	ldi	r24, 0xC7	; 199
    34f2:	94 e0       	ldi	r25, 0x04	; 4
    34f4:	0e 94 f5 0b 	call	0x17ea	; 0x17ea <_Z17SaveStateToEEPROMP12StateOfPlatePv>
    34f8:	a6 cf       	rjmp	.-180    	; 0x3446 <_Z16downFuncMainMenuP9CMenuItem+0x3a>
    34fa:	df 91       	pop	r29
    34fc:	cf 91       	pop	r28
    34fe:	1f 91       	pop	r17
    3500:	0f 91       	pop	r16
    3502:	08 95       	ret

00003504 <_Z8WriteOtpPh>:
    3504:	fc 01       	movw	r30, r24
    3506:	81 81       	ldd	r24, Z+1	; 0x01
    3508:	8f 70       	andi	r24, 0x0F	; 15
    350a:	b0 dd       	rcall	.-1184   	; 0x306c <_Z7SetnOTPc>
    350c:	9c c9       	rjmp	.-3272   	; 0x2846 <_Z6SendOkv>
    350e:	08 95       	ret

00003510 <main>:
	
}
//////////////////////////////////////////////////////////////////////////
int main(void)
{
	Init_LCD();
    3510:	0e 94 b9 04 	call	0x972	; 0x972 <_Z8Init_LCDv>
	LCD_Clear();
    3514:	0e 94 b6 04 	call	0x96c	; 0x96c <_Z9LCD_Clearv>
	LCD_DisplayStringRus(0,0,"      ЗАГРУЗКА      ");
    3518:	4e e1       	ldi	r20, 0x1E	; 30
    351a:	53 e0       	ldi	r21, 0x03	; 3
    351c:	60 e0       	ldi	r22, 0x00	; 0
    351e:	80 e0       	ldi	r24, 0x00	; 0
    3520:	0e 94 14 05 	call	0xa28	; 0xa28 <_Z20LCD_DisplayStringRusccPc>
	InitKeyboard();
    3524:	0e 94 ed 03 	call	0x7da	; 0x7da <_Z12InitKeyboardv>
	InitPrk();
    3528:	66 dd       	rcall	.-1332   	; 0x2ff6 <_Z7InitPrkv>
	InitSelPort();
    352a:	23 d0       	rcall	.+70     	; 0x3572 <_Z11InitSelPortv>
	IICInit();
    352c:	0e 94 82 03 	call	0x704	; 0x704 <_Z7IICInitv>
	InitUart();
    3530:	fb d8       	rcall	.-3594   	; 0x2728 <_Z8InitUartv>
	 g_currentItem = &g_mainMenuItem;
	//g_currentItem = & g_prkSettingMenuItem;
	#ifdef DDC_BOARD
		g_currentItem = &g_zselSettingMenuItem;
    3532:	8c e5       	ldi	r24, 0x5C	; 92
    3534:	93 e0       	ldi	r25, 0x03	; 3
    3536:	90 93 2a 05 	sts	0x052A, r25
    353a:	80 93 29 05 	sts	0x0529, r24
	#endif
	g_currentItem->draw();
    353e:	0e 94 1c 0a 	call	0x1438	; 0x1438 <_ZN9CMenuItem4drawEv>

	SendCOMBytes((uchar*)"REBOOT",7);
    3542:	67 e0       	ldi	r22, 0x07	; 7
    3544:	83 e3       	ldi	r24, 0x33	; 51
    3546:	93 e0       	ldi	r25, 0x03	; 3
    3548:	fd d8       	rcall	.-3590   	; 0x2744 <_Z12SendCOMBytesPhc>
	DDRB |= _BV(7);//Вывод отпирания для платы предкорректора
    354a:	bf 9a       	sbi	0x17, 7	; 23
// 		char a = read_adc(ADC_UPAS_OUT_PIN);
// 		LCD_DisplayCharacter(g_hexOut[(a & 0xF0) >> 4]);
// 		LCD_DisplayCharacter(g_hexOut[(a & 0x0F) ]);
// 		_delay_ms(100);
// 		LCD_Clear();
      ScanKeyboard(KeySelect);
    354c:	8a e4       	ldi	r24, 0x4A	; 74
    354e:	95 e0       	ldi	r25, 0x05	; 5
    3550:	0e 94 03 04 	call	0x806	; 0x806 <_Z12ScanKeyboardPFvhE>
    3554:	fb cf       	rjmp	.-10     	; 0x354c <main+0x3c>

00003556 <_GLOBAL__sub_I__Z11noEventMenuP9CMenuItem>:
	
    }
    3556:	6f ef       	ldi	r22, 0xFF	; 255
    3558:	7f ef       	ldi	r23, 0xFF	; 255
    355a:	81 e0       	ldi	r24, 0x01	; 1
    355c:	90 e0       	ldi	r25, 0x00	; 0
    355e:	0c 94 f2 06 	jmp	0xde4	; 0xde4 <_Z41__static_initialization_and_destruction_0ii>
    3562:	08 95       	ret

00003564 <_GLOBAL__sub_D__Z11noEventMenuP9CMenuItem>:
    3564:	6f ef       	ldi	r22, 0xFF	; 255
    3566:	7f ef       	ldi	r23, 0xFF	; 255
    3568:	80 e0       	ldi	r24, 0x00	; 0
    356a:	90 e0       	ldi	r25, 0x00	; 0
    356c:	0c 94 f2 06 	jmp	0xde4	; 0xde4 <_Z41__static_initialization_and_destruction_0ii>
    3570:	08 95       	ret

00003572 <_Z11InitSelPortv>:
	else
	SEL_PORT |= _BV(SEL_DATA_PIN);
}

void InitSelPort(){//начальные установки порта
	SEL_PORT_DDR |= _BV(CLKK_PIN);
    3572:	b9 9a       	sbi	0x17, 1	; 23
	SEL_PORT_DDR |= _BV(CLKS_PIN);
    3574:	b8 9a       	sbi	0x17, 0	; 23
	SEL_PORT_DDR |= _BV(SEL_DATA_PIN);
    3576:	ba 9a       	sbi	0x17, 2	; 23
	SEL_PORT_DDR |= _BV(SEL_nOTP_PIN);
    3578:	bf 9a       	sbi	0x17, 7	; 23
	SETCLKK(0);
    357a:	c1 98       	cbi	0x18, 1	; 24
	SETCLKS(0);
    357c:	c0 98       	cbi	0x18, 0	; 24
	SETDATA(0);
    357e:	c2 98       	cbi	0x18, 2	; 24
	SET_SEL_nOTP(0);
    3580:	c7 98       	cbi	0x18, 7	; 24
    3582:	08 95       	ret

00003584 <_Z5SendAPj>:

}

void SendA(unsigned int* LCAout){//отправка значения аттенюатора
    3584:	fc 01       	movw	r30, r24
	char i;
	cli();
    3586:	f8 94       	cli
    3588:	2f e0       	ldi	r18, 0x0F	; 15
    358a:	30 e0       	ldi	r19, 0x00	; 0
	for (i = 8; i > 0; i--)
	{
		SETCLKK(0);
    358c:	c1 98       	cbi	0x18, 1	; 24
    358e:	85 e2       	ldi	r24, 0x25	; 37
    3590:	8a 95       	dec	r24
    3592:	f1 f7       	brne	.-4      	; 0x3590 <_Z5SendAPj+0xc>
		_delay_us(10);
		//SetDATA( (( ((unsigned int)eeprom_read_word(&LCAout[2])) >> (8 + i - 1)) & 0x0001));
		SETDATA( ((LCAout[2] >> (8 + i - 1)) & 0x0001));
    3594:	44 81       	ldd	r20, Z+4	; 0x04
    3596:	55 81       	ldd	r21, Z+5	; 0x05
    3598:	02 2e       	mov	r0, r18
    359a:	02 c0       	rjmp	.+4      	; 0x35a0 <_Z5SendAPj+0x1c>
    359c:	56 95       	lsr	r21
    359e:	47 95       	ror	r20
    35a0:	0a 94       	dec	r0
    35a2:	e2 f7       	brpl	.-8      	; 0x359c <_Z5SendAPj+0x18>
    35a4:	40 fd       	sbrc	r20, 0
    35a6:	02 c0       	rjmp	.+4      	; 0x35ac <_Z5SendAPj+0x28>
    35a8:	c2 98       	cbi	0x18, 2	; 24
    35aa:	01 c0       	rjmp	.+2      	; 0x35ae <_Z5SendAPj+0x2a>
    35ac:	c2 9a       	sbi	0x18, 2	; 24
    35ae:	85 e2       	ldi	r24, 0x25	; 37
    35b0:	8a 95       	dec	r24
    35b2:	f1 f7       	brne	.-4      	; 0x35b0 <_Z5SendAPj+0x2c>
		_delay_us(10);
		SETCLKK(1);
    35b4:	c1 9a       	sbi	0x18, 1	; 24
    35b6:	85 e2       	ldi	r24, 0x25	; 37
    35b8:	8a 95       	dec	r24
    35ba:	f1 f7       	brne	.-4      	; 0x35b8 <_Z5SendAPj+0x34>
    35bc:	21 50       	subi	r18, 0x01	; 1
    35be:	31 09       	sbc	r19, r1
}

void SendA(unsigned int* LCAout){//отправка значения аттенюатора
	char i;
	cli();
	for (i = 8; i > 0; i--)
    35c0:	27 30       	cpi	r18, 0x07	; 7
    35c2:	31 05       	cpc	r19, r1
    35c4:	19 f7       	brne	.-58     	; 0x358c <_Z5SendAPj+0x8>
		SETDATA( ((LCAout[2] >> (8 + i - 1)) & 0x0001));
		_delay_us(10);
		SETCLKK(1);
		_delay_us(10);
	}
	SETCLKK(0);
    35c6:	c1 98       	cbi	0x18, 1	; 24
	SETCLKS(0);
    35c8:	c0 98       	cbi	0x18, 0	; 24
	SETDATA(0);
    35ca:	c2 98       	cbi	0x18, 2	; 24
	sei();
    35cc:	78 94       	sei
    35ce:	08 95       	ret

000035d0 <_Z11SendLCA2SelPh>:
}

void SendLCA2Sel(unsigned char* LCAout){//отправка значения настройки контуров
    35d0:	0f 93       	push	r16
    35d2:	1f 93       	push	r17
    35d4:	cf 93       	push	r28
    35d6:	df 93       	push	r29
    35d8:	ec 01       	movw	r28, r24
	char i;
	unsigned int* LCA = (unsigned int* ) LCAout;
	cli();
    35da:	f8 94       	cli

	SetnOTP(1);//запираем предкорретор
    35dc:	81 e0       	ldi	r24, 0x01	; 1
    35de:	46 dd       	rcall	.-1396   	; 0x306c <_Z7SetnOTPc>
    35e0:	08 e2       	ldi	r16, 0x28	; 40
    35e2:	19 e2       	ldi	r17, 0x29	; 41
    35e4:	02 c0       	rjmp	.+4      	; 0x35ea <_Z11SendLCA2SelPh+0x1a>
    35e6:	11 50       	subi	r17, 0x01	; 1
    35e8:	01 50       	subi	r16, 0x01	; 1
	for (  i = 41; i > 0; i--)
	{
		if (i <= 16)
    35ea:	11 31       	cpi	r17, 0x11	; 17
    35ec:	d0 f4       	brcc	.+52     	; 0x3622 <_Z11SendLCA2SelPh+0x52>
		{
			SETCLKS(0);
    35ee:	c0 98       	cbi	0x18, 0	; 24
    35f0:	85 e2       	ldi	r24, 0x25	; 37
    35f2:	8a 95       	dec	r24
    35f4:	f1 f7       	brne	.-4      	; 0x35f2 <_Z11SendLCA2SelPh+0x22>
			_delay_us(10);
			//SetDATA( (( ((unsigned int)eeprom_read_word(&LCA[0])) >> (i - 1)) & 0x0001));
			SETDATA( ((LCA[0] >> (i - 1)) & 0x0001));
    35f6:	88 81       	ld	r24, Y
    35f8:	99 81       	ldd	r25, Y+1	; 0x01
    35fa:	2f ef       	ldi	r18, 0xFF	; 255
    35fc:	21 0f       	add	r18, r17
    35fe:	02 c0       	rjmp	.+4      	; 0x3604 <_Z11SendLCA2SelPh+0x34>
    3600:	96 95       	lsr	r25
    3602:	87 95       	ror	r24
    3604:	2a 95       	dec	r18
    3606:	e2 f7       	brpl	.-8      	; 0x3600 <_Z11SendLCA2SelPh+0x30>
    3608:	80 fd       	sbrc	r24, 0
    360a:	02 c0       	rjmp	.+4      	; 0x3610 <_Z11SendLCA2SelPh+0x40>
    360c:	c2 98       	cbi	0x18, 2	; 24
    360e:	01 c0       	rjmp	.+2      	; 0x3612 <_Z11SendLCA2SelPh+0x42>
    3610:	c2 9a       	sbi	0x18, 2	; 24
    3612:	85 e2       	ldi	r24, 0x25	; 37
    3614:	8a 95       	dec	r24
    3616:	f1 f7       	brne	.-4      	; 0x3614 <_Z11SendLCA2SelPh+0x44>
			_delay_us(10);
			SETCLKS(1);
    3618:	c0 9a       	sbi	0x18, 0	; 24
    361a:	85 e2       	ldi	r24, 0x25	; 37
    361c:	8a 95       	dec	r24
    361e:	f1 f7       	brne	.-4      	; 0x361c <_Z11SendLCA2SelPh+0x4c>
    3620:	41 c0       	rjmp	.+130    	; 0x36a4 <_Z11SendLCA2SelPh+0xd4>
    3622:	8f ee       	ldi	r24, 0xEF	; 239
    3624:	81 0f       	add	r24, r17
			_delay_us(10);
			
		} else if ((16 < i)&&(i <= 32))
    3626:	80 31       	cpi	r24, 0x10	; 16
    3628:	d0 f4       	brcc	.+52     	; 0x365e <_Z11SendLCA2SelPh+0x8e>
		{
			SETCLKS(0);
    362a:	c0 98       	cbi	0x18, 0	; 24
    362c:	85 e2       	ldi	r24, 0x25	; 37
    362e:	8a 95       	dec	r24
    3630:	f1 f7       	brne	.-4      	; 0x362e <_Z11SendLCA2SelPh+0x5e>
			_delay_us(10);
			//SetDATA( (( ((unsigned int)eeprom_read_word(&LCA[1])) >> (i - 16 - 1)) & 0x0001));
			SETDATA( ((LCA[1] >> (i - 16 - 1)) & 0x0001));
    3632:	8a 81       	ldd	r24, Y+2	; 0x02
    3634:	9b 81       	ldd	r25, Y+3	; 0x03
    3636:	2f ee       	ldi	r18, 0xEF	; 239
    3638:	21 0f       	add	r18, r17
    363a:	02 c0       	rjmp	.+4      	; 0x3640 <_Z11SendLCA2SelPh+0x70>
    363c:	96 95       	lsr	r25
    363e:	87 95       	ror	r24
    3640:	2a 95       	dec	r18
    3642:	e2 f7       	brpl	.-8      	; 0x363c <_Z11SendLCA2SelPh+0x6c>
    3644:	80 fd       	sbrc	r24, 0
    3646:	02 c0       	rjmp	.+4      	; 0x364c <_Z11SendLCA2SelPh+0x7c>
    3648:	c2 98       	cbi	0x18, 2	; 24
    364a:	01 c0       	rjmp	.+2      	; 0x364e <_Z11SendLCA2SelPh+0x7e>
    364c:	c2 9a       	sbi	0x18, 2	; 24
    364e:	85 e2       	ldi	r24, 0x25	; 37
    3650:	8a 95       	dec	r24
    3652:	f1 f7       	brne	.-4      	; 0x3650 <_Z11SendLCA2SelPh+0x80>
			_delay_us(10);
			SETCLKS(1);
    3654:	c0 9a       	sbi	0x18, 0	; 24
    3656:	85 e2       	ldi	r24, 0x25	; 37
    3658:	8a 95       	dec	r24
    365a:	f1 f7       	brne	.-4      	; 0x3658 <_Z11SendLCA2SelPh+0x88>
    365c:	23 c0       	rjmp	.+70     	; 0x36a4 <_Z11SendLCA2SelPh+0xd4>
    365e:	8f ed       	ldi	r24, 0xDF	; 223
    3660:	81 0f       	add	r24, r17
			_delay_us(10);
			
		} else if ((32 < i)&&(i <= 40))
    3662:	88 30       	cpi	r24, 0x08	; 8
    3664:	d0 f4       	brcc	.+52     	; 0x369a <_Z11SendLCA2SelPh+0xca>
		{
			SETCLKS(0);
    3666:	c0 98       	cbi	0x18, 0	; 24
    3668:	85 e2       	ldi	r24, 0x25	; 37
    366a:	8a 95       	dec	r24
    366c:	f1 f7       	brne	.-4      	; 0x366a <_Z11SendLCA2SelPh+0x9a>
			_delay_us(10);
			//SetDATA( (( ((unsigned int)eeprom_read_word(&LCA[2])) >> (i - 32 - 1)) & 0x0001));
			SETDATA( ((LCA[2] >> (i - 32 - 1)) & 0x0001));
    366e:	8c 81       	ldd	r24, Y+4	; 0x04
    3670:	9d 81       	ldd	r25, Y+5	; 0x05
    3672:	2f ed       	ldi	r18, 0xDF	; 223
    3674:	21 0f       	add	r18, r17
    3676:	02 c0       	rjmp	.+4      	; 0x367c <_Z11SendLCA2SelPh+0xac>
    3678:	96 95       	lsr	r25
    367a:	87 95       	ror	r24
    367c:	2a 95       	dec	r18
    367e:	e2 f7       	brpl	.-8      	; 0x3678 <_Z11SendLCA2SelPh+0xa8>
    3680:	80 fd       	sbrc	r24, 0
    3682:	02 c0       	rjmp	.+4      	; 0x3688 <_Z11SendLCA2SelPh+0xb8>
    3684:	c2 98       	cbi	0x18, 2	; 24
    3686:	01 c0       	rjmp	.+2      	; 0x368a <_Z11SendLCA2SelPh+0xba>
    3688:	c2 9a       	sbi	0x18, 2	; 24
    368a:	85 e2       	ldi	r24, 0x25	; 37
    368c:	8a 95       	dec	r24
    368e:	f1 f7       	brne	.-4      	; 0x368c <_Z11SendLCA2SelPh+0xbc>
			_delay_us(10);
			SETCLKS(1);
    3690:	c0 9a       	sbi	0x18, 0	; 24
    3692:	85 e2       	ldi	r24, 0x25	; 37
    3694:	8a 95       	dec	r24
    3696:	f1 f7       	brne	.-4      	; 0x3694 <_Z11SendLCA2SelPh+0xc4>
    3698:	05 c0       	rjmp	.+10     	; 0x36a4 <_Z11SendLCA2SelPh+0xd4>
			_delay_us(10);
			
		}else if (41 == i)
    369a:	19 32       	cpi	r17, 0x29	; 41
    369c:	19 f4       	brne	.+6      	; 0x36a4 <_Z11SendLCA2SelPh+0xd4>
		{
			SendA(LCA);
    369e:	ce 01       	movw	r24, r28
    36a0:	71 df       	rcall	.-286    	; 0x3584 <_Z5SendAPj>
    36a2:	a1 cf       	rjmp	.-190    	; 0x35e6 <_Z11SendLCA2SelPh+0x16>
	char i;
	unsigned int* LCA = (unsigned int* ) LCAout;
	cli();

	SetnOTP(1);//запираем предкорретор
	for (  i = 41; i > 0; i--)
    36a4:	01 11       	cpse	r16, r1
    36a6:	9f cf       	rjmp	.-194    	; 0x35e6 <_Z11SendLCA2SelPh+0x16>
		{
			SendA(LCA);
		}
		
	}
	SETCLKK(0);
    36a8:	c1 98       	cbi	0x18, 1	; 24
	SETCLKS(0);
    36aa:	c0 98       	cbi	0x18, 0	; 24
	SETDATA(0);
    36ac:	c2 98       	cbi	0x18, 2	; 24
	SetnOTP(0);//отпираем предкорретор
    36ae:	80 e0       	ldi	r24, 0x00	; 0
    36b0:	dd dc       	rcall	.-1606   	; 0x306c <_Z7SetnOTPc>
	sei();
    36b2:	78 94       	sei

}
    36b4:	df 91       	pop	r29
    36b6:	cf 91       	pop	r28
    36b8:	1f 91       	pop	r17
    36ba:	0f 91       	pop	r16
    36bc:	08 95       	ret

000036be <_Z9ChangeReg7regAddr>:
		}
		
	}break;
	
	}
}
    36be:	b8 9a       	sbi	0x17, 0	; 23
    36c0:	ba 9a       	sbi	0x17, 2	; 23
    36c2:	c2 98       	cbi	0x18, 2	; 24
    36c4:	c0 98       	cbi	0x18, 0	; 24
    36c6:	27 e3       	ldi	r18, 0x37	; 55
    36c8:	2a 95       	dec	r18
    36ca:	f1 f7       	brne	.-4      	; 0x36c8 <_Z9ChangeReg7regAddr+0xa>
    36cc:	00 00       	nop
    36ce:	88 23       	and	r24, r24
    36d0:	71 f0       	breq	.+28     	; 0x36ee <_Z9ChangeReg7regAddr+0x30>
    36d2:	90 e0       	ldi	r25, 0x00	; 0
    36d4:	c2 9a       	sbi	0x18, 2	; 24
    36d6:	27 e0       	ldi	r18, 0x07	; 7
    36d8:	2a 95       	dec	r18
    36da:	f1 f7       	brne	.-4      	; 0x36d8 <_Z9ChangeReg7regAddr+0x1a>
    36dc:	00 c0       	rjmp	.+0      	; 0x36de <_Z9ChangeReg7regAddr+0x20>
    36de:	c2 98       	cbi	0x18, 2	; 24
    36e0:	27 e0       	ldi	r18, 0x07	; 7
    36e2:	2a 95       	dec	r18
    36e4:	f1 f7       	brne	.-4      	; 0x36e2 <_Z9ChangeReg7regAddr+0x24>
    36e6:	00 c0       	rjmp	.+0      	; 0x36e8 <_Z9ChangeReg7regAddr+0x2a>
    36e8:	9f 5f       	subi	r25, 0xFF	; 255
    36ea:	98 17       	cp	r25, r24
    36ec:	98 f3       	brcs	.-26     	; 0x36d4 <_Z9ChangeReg7regAddr+0x16>
    36ee:	c0 9a       	sbi	0x18, 0	; 24
    36f0:	c2 98       	cbi	0x18, 2	; 24
    36f2:	08 95       	ret

000036f4 <_Z11SetZselCap1i>:
    36f4:	cf 93       	push	r28
    36f6:	df 93       	push	r29
    36f8:	ec 01       	movw	r28, r24
    36fa:	85 e0       	ldi	r24, 0x05	; 5
    36fc:	e0 df       	rcall	.-64     	; 0x36be <_Z9ChangeReg7regAddr>
    36fe:	b9 9a       	sbi	0x17, 1	; 23
    3700:	ba 9a       	sbi	0x17, 2	; 23
    3702:	c2 98       	cbi	0x18, 2	; 24
    3704:	c1 98       	cbi	0x18, 1	; 24
    3706:	88 e0       	ldi	r24, 0x08	; 8
    3708:	c2 98       	cbi	0x18, 2	; 24
    370a:	97 e0       	ldi	r25, 0x07	; 7
    370c:	9a 95       	dec	r25
    370e:	f1 f7       	brne	.-4      	; 0x370c <_Z11SetZselCap1i+0x18>
    3710:	00 c0       	rjmp	.+0      	; 0x3712 <_Z11SetZselCap1i+0x1e>
    3712:	c1 9a       	sbi	0x18, 1	; 24
    3714:	97 e0       	ldi	r25, 0x07	; 7
    3716:	9a 95       	dec	r25
    3718:	f1 f7       	brne	.-4      	; 0x3716 <_Z11SetZselCap1i+0x22>
    371a:	00 c0       	rjmp	.+0      	; 0x371c <_Z11SetZselCap1i+0x28>
    371c:	c1 98       	cbi	0x18, 1	; 24
    371e:	97 e0       	ldi	r25, 0x07	; 7
    3720:	9a 95       	dec	r25
    3722:	f1 f7       	brne	.-4      	; 0x3720 <_Z11SetZselCap1i+0x2c>
    3724:	00 c0       	rjmp	.+0      	; 0x3726 <_Z11SetZselCap1i+0x32>
    3726:	81 50       	subi	r24, 0x01	; 1
    3728:	79 f7       	brne	.-34     	; 0x3708 <_Z11SetZselCap1i+0x14>
    372a:	29 e0       	ldi	r18, 0x09	; 9
    372c:	30 e0       	ldi	r19, 0x00	; 0
    372e:	ae 01       	movw	r20, r28
    3730:	02 2e       	mov	r0, r18
    3732:	02 c0       	rjmp	.+4      	; 0x3738 <_Z11SetZselCap1i+0x44>
    3734:	56 95       	lsr	r21
    3736:	47 95       	ror	r20
    3738:	0a 94       	dec	r0
    373a:	e2 f7       	brpl	.-8      	; 0x3734 <_Z11SetZselCap1i+0x40>
    373c:	40 fd       	sbrc	r20, 0
    373e:	02 c0       	rjmp	.+4      	; 0x3744 <_Z11SetZselCap1i+0x50>
    3740:	c2 98       	cbi	0x18, 2	; 24
    3742:	01 c0       	rjmp	.+2      	; 0x3746 <_Z11SetZselCap1i+0x52>
    3744:	c2 9a       	sbi	0x18, 2	; 24
    3746:	87 e0       	ldi	r24, 0x07	; 7
    3748:	8a 95       	dec	r24
    374a:	f1 f7       	brne	.-4      	; 0x3748 <_Z11SetZselCap1i+0x54>
    374c:	00 c0       	rjmp	.+0      	; 0x374e <_Z11SetZselCap1i+0x5a>
    374e:	c1 9a       	sbi	0x18, 1	; 24
    3750:	97 e0       	ldi	r25, 0x07	; 7
    3752:	9a 95       	dec	r25
    3754:	f1 f7       	brne	.-4      	; 0x3752 <_Z11SetZselCap1i+0x5e>
    3756:	00 c0       	rjmp	.+0      	; 0x3758 <_Z11SetZselCap1i+0x64>
    3758:	c1 98       	cbi	0x18, 1	; 24
    375a:	87 e0       	ldi	r24, 0x07	; 7
    375c:	8a 95       	dec	r24
    375e:	f1 f7       	brne	.-4      	; 0x375c <_Z11SetZselCap1i+0x68>
    3760:	00 c0       	rjmp	.+0      	; 0x3762 <_Z11SetZselCap1i+0x6e>
    3762:	21 50       	subi	r18, 0x01	; 1
    3764:	31 09       	sbc	r19, r1
    3766:	18 f7       	brcc	.-58     	; 0x372e <_Z11SetZselCap1i+0x3a>
    3768:	86 e0       	ldi	r24, 0x06	; 6
    376a:	c2 98       	cbi	0x18, 2	; 24
    376c:	97 e0       	ldi	r25, 0x07	; 7
    376e:	9a 95       	dec	r25
    3770:	f1 f7       	brne	.-4      	; 0x376e <_Z11SetZselCap1i+0x7a>
    3772:	00 c0       	rjmp	.+0      	; 0x3774 <_Z11SetZselCap1i+0x80>
    3774:	c1 9a       	sbi	0x18, 1	; 24
    3776:	97 e0       	ldi	r25, 0x07	; 7
    3778:	9a 95       	dec	r25
    377a:	f1 f7       	brne	.-4      	; 0x3778 <_Z11SetZselCap1i+0x84>
    377c:	00 c0       	rjmp	.+0      	; 0x377e <_Z11SetZselCap1i+0x8a>
    377e:	c1 98       	cbi	0x18, 1	; 24
    3780:	97 e0       	ldi	r25, 0x07	; 7
    3782:	9a 95       	dec	r25
    3784:	f1 f7       	brne	.-4      	; 0x3782 <_Z11SetZselCap1i+0x8e>
    3786:	00 c0       	rjmp	.+0      	; 0x3788 <_Z11SetZselCap1i+0x94>
    3788:	81 50       	subi	r24, 0x01	; 1
    378a:	79 f7       	brne	.-34     	; 0x376a <_Z11SetZselCap1i+0x76>
    378c:	c1 98       	cbi	0x18, 1	; 24
    378e:	85 e0       	ldi	r24, 0x05	; 5
    3790:	96 df       	rcall	.-212    	; 0x36be <_Z9ChangeReg7regAddr>
    3792:	df 91       	pop	r29
    3794:	cf 91       	pop	r28
    3796:	08 95       	ret

00003798 <_Z9WriteBytec>:
    3798:	b9 9a       	sbi	0x17, 1	; 23
    379a:	ba 9a       	sbi	0x17, 2	; 23
    379c:	c2 98       	cbi	0x18, 2	; 24
    379e:	c1 98       	cbi	0x18, 1	; 24
    37a0:	98 e0       	ldi	r25, 0x08	; 8
    37a2:	88 23       	and	r24, r24
    37a4:	14 f0       	brlt	.+4      	; 0x37aa <_Z9WriteBytec+0x12>
    37a6:	c2 98       	cbi	0x18, 2	; 24
    37a8:	01 c0       	rjmp	.+2      	; 0x37ac <_Z9WriteBytec+0x14>
    37aa:	c2 9a       	sbi	0x18, 2	; 24
    37ac:	27 e0       	ldi	r18, 0x07	; 7
    37ae:	2a 95       	dec	r18
    37b0:	f1 f7       	brne	.-4      	; 0x37ae <_Z9WriteBytec+0x16>
    37b2:	00 c0       	rjmp	.+0      	; 0x37b4 <_Z9WriteBytec+0x1c>
    37b4:	c1 9a       	sbi	0x18, 1	; 24
    37b6:	27 e0       	ldi	r18, 0x07	; 7
    37b8:	2a 95       	dec	r18
    37ba:	f1 f7       	brne	.-4      	; 0x37b8 <_Z9WriteBytec+0x20>
    37bc:	00 c0       	rjmp	.+0      	; 0x37be <_Z9WriteBytec+0x26>
    37be:	c1 98       	cbi	0x18, 1	; 24
    37c0:	27 e0       	ldi	r18, 0x07	; 7
    37c2:	2a 95       	dec	r18
    37c4:	f1 f7       	brne	.-4      	; 0x37c2 <_Z9WriteBytec+0x2a>
    37c6:	00 c0       	rjmp	.+0      	; 0x37c8 <_Z9WriteBytec+0x30>
    37c8:	88 0f       	add	r24, r24
    37ca:	91 50       	subi	r25, 0x01	; 1
    37cc:	51 f7       	brne	.-44     	; 0x37a2 <_Z9WriteBytec+0xa>
    37ce:	c2 98       	cbi	0x18, 2	; 24
    37d0:	c1 98       	cbi	0x18, 1	; 24
    37d2:	08 95       	ret

000037d4 <_Z12SetZselParamP9ZSELPARAM7regAddr>:
    37d4:	1f 93       	push	r17
    37d6:	cf 93       	push	r28
    37d8:	df 93       	push	r29
    37da:	ec 01       	movw	r28, r24
    37dc:	16 2f       	mov	r17, r22
    37de:	62 30       	cpi	r22, 0x02	; 2
    37e0:	99 f0       	breq	.+38     	; 0x3808 <_Z12SetZselParamP9ZSELPARAM7regAddr+0x34>
    37e2:	30 f0       	brcs	.+12     	; 0x37f0 <_Z12SetZselParamP9ZSELPARAM7regAddr+0x1c>
    37e4:	64 30       	cpi	r22, 0x04	; 4
    37e6:	c9 f0       	breq	.+50     	; 0x381a <_Z12SetZselParamP9ZSELPARAM7regAddr+0x46>
    37e8:	50 f0       	brcs	.+20     	; 0x37fe <_Z12SetZselParamP9ZSELPARAM7regAddr+0x2a>
    37ea:	65 30       	cpi	r22, 0x05	; 5
    37ec:	91 f0       	breq	.+36     	; 0x3812 <_Z12SetZselParamP9ZSELPARAM7regAddr+0x3e>
    37ee:	26 c0       	rjmp	.+76     	; 0x383c <_Z12SetZselParamP9ZSELPARAM7regAddr+0x68>
    37f0:	81 e0       	ldi	r24, 0x01	; 1
    37f2:	65 df       	rcall	.-310    	; 0x36be <_Z9ChangeReg7regAddr>
    37f4:	88 81       	ld	r24, Y
    37f6:	d0 df       	rcall	.-96     	; 0x3798 <_Z9WriteBytec>
    37f8:	11 23       	and	r17, r17
    37fa:	a1 f0       	breq	.+40     	; 0x3824 <_Z12SetZselParamP9ZSELPARAM7regAddr+0x50>
    37fc:	1f c0       	rjmp	.+62     	; 0x383c <_Z12SetZselParamP9ZSELPARAM7regAddr+0x68>
    37fe:	83 e0       	ldi	r24, 0x03	; 3
    3800:	5e df       	rcall	.-324    	; 0x36be <_Z9ChangeReg7regAddr>
    3802:	8a 81       	ldd	r24, Y+2	; 0x02
    3804:	c9 df       	rcall	.-110    	; 0x3798 <_Z9WriteBytec>
    3806:	1a c0       	rjmp	.+52     	; 0x383c <_Z12SetZselParamP9ZSELPARAM7regAddr+0x68>
    3808:	82 e0       	ldi	r24, 0x02	; 2
    380a:	59 df       	rcall	.-334    	; 0x36be <_Z9ChangeReg7regAddr>
    380c:	89 81       	ldd	r24, Y+1	; 0x01
    380e:	c4 df       	rcall	.-120    	; 0x3798 <_Z9WriteBytec>
    3810:	15 c0       	rjmp	.+42     	; 0x383c <_Z12SetZselParamP9ZSELPARAM7regAddr+0x68>
    3812:	8c 81       	ldd	r24, Y+4	; 0x04
    3814:	9d 81       	ldd	r25, Y+5	; 0x05
    3816:	6e df       	rcall	.-292    	; 0x36f4 <_Z11SetZselCap1i>
    3818:	11 c0       	rjmp	.+34     	; 0x383c <_Z12SetZselParamP9ZSELPARAM7regAddr+0x68>
    381a:	84 e0       	ldi	r24, 0x04	; 4
    381c:	50 df       	rcall	.-352    	; 0x36be <_Z9ChangeReg7regAddr>
    381e:	8b 81       	ldd	r24, Y+3	; 0x03
    3820:	bb df       	rcall	.-138    	; 0x3798 <_Z9WriteBytec>
    3822:	0c c0       	rjmp	.+24     	; 0x383c <_Z12SetZselParamP9ZSELPARAM7regAddr+0x68>
    3824:	83 e0       	ldi	r24, 0x03	; 3
    3826:	4b df       	rcall	.-362    	; 0x36be <_Z9ChangeReg7regAddr>
    3828:	8a 81       	ldd	r24, Y+2	; 0x02
    382a:	b6 df       	rcall	.-148    	; 0x3798 <_Z9WriteBytec>
    382c:	82 e0       	ldi	r24, 0x02	; 2
    382e:	47 df       	rcall	.-370    	; 0x36be <_Z9ChangeReg7regAddr>
    3830:	89 81       	ldd	r24, Y+1	; 0x01
    3832:	b2 df       	rcall	.-156    	; 0x3798 <_Z9WriteBytec>
    3834:	8c 81       	ldd	r24, Y+4	; 0x04
    3836:	9d 81       	ldd	r25, Y+5	; 0x05
    3838:	5d df       	rcall	.-326    	; 0x36f4 <_Z11SetZselCap1i>
    383a:	ef cf       	rjmp	.-34     	; 0x381a <_Z12SetZselParamP9ZSELPARAM7regAddr+0x46>
    383c:	df 91       	pop	r29
    383e:	cf 91       	pop	r28
    3840:	1f 91       	pop	r17
    3842:	08 95       	ret

00003844 <_Z11SetZselOpenb>:
    3844:	bf 9a       	sbi	0x17, 7	; 23
    3846:	88 23       	and	r24, r24
    3848:	11 f0       	breq	.+4      	; 0x384e <_Z11SetZselOpenb+0xa>
    384a:	c7 98       	cbi	0x18, 7	; 24
    384c:	08 95       	ret
    384e:	c7 9a       	sbi	0x18, 7	; 24
    3850:	08 95       	ret

00003852 <_Z13FindFreqParamiP9ZSELPARAM>:
	{1510,2,0,1},{1300,2,1,1},{1270,2,2,1},{1150,2,4,2},{970,2,8,8},{800,2,13,8},
	{795,4,0,1},{685,4,1,1},{660,4,2,1},{600,4,4,2},{500,4,8,2},{460,4,10,2},{440,4,12,4},{400,4,15,12},{0,0,0,0}};

//////////////////////////////////////////////////////////////////////////
void FindFreqParam( int freq, ZSELPARAM * param )
{
    3852:	db 01       	movw	r26, r22
	FREQGRIDBORDER freqBorder = freqBordersGrid[0];
    3854:	ee e8       	ldi	r30, 0x8E	; 142
    3856:	f1 e0       	ldi	r31, 0x01	; 1
    3858:	20 81       	ld	r18, Z
    385a:	31 81       	ldd	r19, Z+1	; 0x01
    385c:	52 81       	ldd	r21, Z+2	; 0x02
    385e:	73 81       	ldd	r23, Z+3	; 0x03
    3860:	64 81       	ldd	r22, Z+4	; 0x04
	char i = 0;
	//Поиск сочетания L C link по частоте
	while (freqBorder.freq != 0)//пока не достигли конца списка
    3862:	21 15       	cp	r18, r1
    3864:	31 05       	cpc	r19, r1
    3866:	71 f1       	breq	.+92     	; 0x38c4 <_Z13FindFreqParamiP9ZSELPARAM+0x72>
	{
		freqBorder = freqBordersGrid[i];//получаем элемент списка частот
		if (freqBorder.freq >= freq)//пока частота элемента больше чем установленная частота не делаем ничего
    3868:	28 17       	cp	r18, r24
    386a:	39 07       	cpc	r19, r25
    386c:	c4 f0       	brlt	.+48     	; 0x389e <_Z13FindFreqParamiP9ZSELPARAM+0x4c>
		{}else{//как только дошли до элемента с частотой меньше чем установленная
		if(i > 0) i = i - 1; else i = 0;//если это был нулевой элемент то берем его
		freqBorder = freqBordersGrid[i];//если это был элемент не на краю списка то берем предыдущий и завершаем поиск
		break;
			}
	i++;
    386e:	41 e0       	ldi	r20, 0x01	; 1
	FREQGRIDBORDER freqBorder = freqBordersGrid[0];
	char i = 0;
	//Поиск сочетания L C link по частоте
	while (freqBorder.freq != 0)//пока не достигли конца списка
	{
		freqBorder = freqBordersGrid[i];//получаем элемент списка частот
    3870:	24 2f       	mov	r18, r20
    3872:	30 e0       	ldi	r19, 0x00	; 0
    3874:	f9 01       	movw	r30, r18
    3876:	ee 0f       	add	r30, r30
    3878:	ff 1f       	adc	r31, r31
    387a:	ee 0f       	add	r30, r30
    387c:	ff 1f       	adc	r31, r31
    387e:	e2 0f       	add	r30, r18
    3880:	f3 1f       	adc	r31, r19
    3882:	e2 57       	subi	r30, 0x72	; 114
    3884:	fe 4f       	sbci	r31, 0xFE	; 254
    3886:	20 81       	ld	r18, Z
    3888:	31 81       	ldd	r19, Z+1	; 0x01
    388a:	52 81       	ldd	r21, Z+2	; 0x02
    388c:	73 81       	ldd	r23, Z+3	; 0x03
    388e:	64 81       	ldd	r22, Z+4	; 0x04
		if (freqBorder.freq >= freq)//пока частота элемента больше чем установленная частота не делаем ничего
    3890:	28 17       	cp	r18, r24
    3892:	39 07       	cpc	r19, r25
    3894:	a4 f4       	brge	.+40     	; 0x38be <_Z13FindFreqParamiP9ZSELPARAM+0x6c>
		{}else{//как только дошли до элемента с частотой меньше чем установленная
		if(i > 0) i = i - 1; else i = 0;//если это был нулевой элемент то берем его
    3896:	44 23       	and	r20, r20
    3898:	19 f0       	breq	.+6      	; 0x38a0 <_Z13FindFreqParamiP9ZSELPARAM+0x4e>
    389a:	41 50       	subi	r20, 0x01	; 1
    389c:	01 c0       	rjmp	.+2      	; 0x38a0 <_Z13FindFreqParamiP9ZSELPARAM+0x4e>
    389e:	40 e0       	ldi	r20, 0x00	; 0
		freqBorder = freqBordersGrid[i];//если это был элемент не на краю списка то берем предыдущий и завершаем поиск
    38a0:	84 2f       	mov	r24, r20
    38a2:	90 e0       	ldi	r25, 0x00	; 0
    38a4:	fc 01       	movw	r30, r24
    38a6:	ee 0f       	add	r30, r30
    38a8:	ff 1f       	adc	r31, r31
    38aa:	ee 0f       	add	r30, r30
    38ac:	ff 1f       	adc	r31, r31
    38ae:	e8 0f       	add	r30, r24
    38b0:	f9 1f       	adc	r31, r25
    38b2:	e2 57       	subi	r30, 0x72	; 114
    38b4:	fe 4f       	sbci	r31, 0xFE	; 254
    38b6:	52 81       	ldd	r21, Z+2	; 0x02
    38b8:	73 81       	ldd	r23, Z+3	; 0x03
    38ba:	64 81       	ldd	r22, Z+4	; 0x04
		break;
    38bc:	03 c0       	rjmp	.+6      	; 0x38c4 <_Z13FindFreqParamiP9ZSELPARAM+0x72>
			}
	i++;
    38be:	4f 5f       	subi	r20, 0xFF	; 255
void FindFreqParam( int freq, ZSELPARAM * param )
{
	FREQGRIDBORDER freqBorder = freqBordersGrid[0];
	char i = 0;
	//Поиск сочетания L C link по частоте
	while (freqBorder.freq != 0)//пока не достигли конца списка
    38c0:	23 2b       	or	r18, r19
    38c2:	b1 f6       	brne	.-84     	; 0x3870 <_Z13FindFreqParamiP9ZSELPARAM+0x1e>
			}
	i++;
	}


	param->C = freqBorder.C;
    38c4:	11 96       	adiw	r26, 0x01	; 1
    38c6:	7c 93       	st	X, r23
    38c8:	11 97       	sbiw	r26, 0x01	; 1
	param->link = freqBorder.Link;
    38ca:	12 96       	adiw	r26, 0x02	; 2
    38cc:	6c 93       	st	X, r22
    38ce:	12 97       	sbiw	r26, 0x02	; 2
	param->L = freqBorder.L;
    38d0:	5c 93       	st	X, r21
	param->A = 0x00;
    38d2:	13 96       	adiw	r26, 0x03	; 3
    38d4:	1c 92       	st	X, r1
    38d6:	13 97       	sbiw	r26, 0x03	; 3
	SetZselParam(param,ALLREG);
    38d8:	60 e0       	ldi	r22, 0x00	; 0
    38da:	cd 01       	movw	r24, r26
    38dc:	7b cf       	rjmp	.-266    	; 0x37d4 <_Z12SetZselParamP9ZSELPARAM7regAddr>
    38de:	08 95       	ret

000038e0 <_Z11TuneZselCapP9ZSELPARAM>:
}
//////////////////////////////////////////////////////////////////////////

void TuneZselCap( ZSELPARAM * param )
{
    38e0:	bf 92       	push	r11
    38e2:	cf 92       	push	r12
    38e4:	df 92       	push	r13
    38e6:	ef 92       	push	r14
    38e8:	ff 92       	push	r15
    38ea:	0f 93       	push	r16
    38ec:	1f 93       	push	r17
    38ee:	cf 93       	push	r28
    38f0:	df 93       	push	r29
    38f2:	ec 01       	movw	r28, r24
	char ampCenter1,ampCenter2;
	int startC = 0x0000, stopC = 0x03FF, lengthOfDiap, indOfCenter, currentC;
	

	#define  EPSILON 2//точность нахождения емкости
	while (abs(stopC - startC) > EPSILON)//поиск максимума бисекцией
    38f4:	2f ef       	ldi	r18, 0xFF	; 255
    38f6:	33 e0       	ldi	r19, 0x03	; 3
//////////////////////////////////////////////////////////////////////////

void TuneZselCap( ZSELPARAM * param )
{
	char ampCenter1,ampCenter2;
	int startC = 0x0000, stopC = 0x03FF, lengthOfDiap, indOfCenter, currentC;
    38f8:	0f 2e       	mov	r0, r31
    38fa:	cc 24       	eor	r12, r12
    38fc:	ca 94       	dec	r12
    38fe:	f3 e0       	ldi	r31, 0x03	; 3
    3900:	df 2e       	mov	r13, r31
    3902:	f0 2d       	mov	r31, r0
    3904:	e1 2c       	mov	r14, r1
    3906:	f1 2c       	mov	r15, r1
	#define  EPSILON 2//точность нахождения емкости
	while (abs(stopC - startC) > EPSILON)//поиск максимума бисекцией
	{
		
		lengthOfDiap = (stopC - startC);
		indOfCenter = lengthOfDiap/2 + startC;
    3908:	89 01       	movw	r16, r18
    390a:	33 23       	and	r19, r19
    390c:	14 f4       	brge	.+4      	; 0x3912 <_Z11TuneZselCapP9ZSELPARAM+0x32>
    390e:	0f 5f       	subi	r16, 0xFF	; 255
    3910:	1f 4f       	sbci	r17, 0xFF	; 255
    3912:	15 95       	asr	r17
    3914:	07 95       	ror	r16
    3916:	0e 0d       	add	r16, r14
    3918:	1f 1d       	adc	r17, r15
		currentC = indOfCenter;

		param->cap1 = indOfCenter - EPSILON;
    391a:	c8 01       	movw	r24, r16
    391c:	02 97       	sbiw	r24, 0x02	; 2
    391e:	9d 83       	std	Y+5, r25	; 0x05
    3920:	8c 83       	std	Y+4, r24	; 0x04
		SetZselParam(param,CAP1REG);
    3922:	65 e0       	ldi	r22, 0x05	; 5
    3924:	ce 01       	movw	r24, r28
    3926:	56 df       	rcall	.-340    	; 0x37d4 <_Z12SetZselParamP9ZSELPARAM7regAddr>
		ampCenter1 =  read_steady_adc(ADC_UPAS_OUT_PIN);
    3928:	85 e0       	ldi	r24, 0x05	; 5
    392a:	0e 94 da 00 	call	0x1b4	; 0x1b4 <_Z15read_steady_adch>
    392e:	b8 2e       	mov	r11, r24
		
		param->cap1 = indOfCenter + EPSILON;
    3930:	98 01       	movw	r18, r16
    3932:	2e 5f       	subi	r18, 0xFE	; 254
    3934:	3f 4f       	sbci	r19, 0xFF	; 255
    3936:	3d 83       	std	Y+5, r19	; 0x05
    3938:	2c 83       	std	Y+4, r18	; 0x04
		SetZselParam(param,CAP1REG);
    393a:	65 e0       	ldi	r22, 0x05	; 5
    393c:	ce 01       	movw	r24, r28
    393e:	4a df       	rcall	.-364    	; 0x37d4 <_Z12SetZselParamP9ZSELPARAM7regAddr>
		ampCenter2 =  read_steady_adc(ADC_UPAS_OUT_PIN);
    3940:	85 e0       	ldi	r24, 0x05	; 5
    3942:	0e 94 da 00 	call	0x1b4	; 0x1b4 <_Z15read_steady_adch>

		if (ampCenter1 < ampCenter2)
    3946:	b8 16       	cp	r11, r24
    3948:	10 f4       	brcc	.+4      	; 0x394e <_Z11TuneZselCapP9ZSELPARAM+0x6e>
	#define  EPSILON 2//точность нахождения емкости
	while (abs(stopC - startC) > EPSILON)//поиск максимума бисекцией
	{
		
		lengthOfDiap = (stopC - startC);
		indOfCenter = lengthOfDiap/2 + startC;
    394a:	78 01       	movw	r14, r16
    394c:	01 c0       	rjmp	.+2      	; 0x3950 <_Z11TuneZselCapP9ZSELPARAM+0x70>
    394e:	68 01       	movw	r12, r16
	char ampCenter1,ampCenter2;
	int startC = 0x0000, stopC = 0x03FF, lengthOfDiap, indOfCenter, currentC;
	

	#define  EPSILON 2//точность нахождения емкости
	while (abs(stopC - startC) > EPSILON)//поиск максимума бисекцией
    3950:	96 01       	movw	r18, r12
    3952:	2e 19       	sub	r18, r14
    3954:	3f 09       	sbc	r19, r15
    3956:	c9 01       	movw	r24, r18
    3958:	22 f4       	brpl	.+8      	; 0x3962 <_Z11TuneZselCapP9ZSELPARAM+0x82>
    395a:	88 27       	eor	r24, r24
    395c:	99 27       	eor	r25, r25
    395e:	82 1b       	sub	r24, r18
    3960:	93 0b       	sbc	r25, r19
    3962:	03 97       	sbiw	r24, 0x03	; 3
    3964:	8c f6       	brge	.-94     	; 0x3908 <_Z11TuneZselCapP9ZSELPARAM+0x28>
		}
		else{
			stopC = indOfCenter;
		}
	}
	param->cap1 = indOfCenter;
    3966:	1d 83       	std	Y+5, r17	; 0x05
    3968:	0c 83       	std	Y+4, r16	; 0x04
	SetZselParam(param,ALLREG);
    396a:	60 e0       	ldi	r22, 0x00	; 0
    396c:	ce 01       	movw	r24, r28
    396e:	32 df       	rcall	.-412    	; 0x37d4 <_Z12SetZselParamP9ZSELPARAM7regAddr>
}
    3970:	df 91       	pop	r29
    3972:	cf 91       	pop	r28
    3974:	1f 91       	pop	r17
    3976:	0f 91       	pop	r16
    3978:	ff 90       	pop	r15
    397a:	ef 90       	pop	r14
    397c:	df 90       	pop	r13
    397e:	cf 90       	pop	r12
    3980:	bf 90       	pop	r11
    3982:	08 95       	ret

00003984 <_Z11SetZselFreqiP9ZSELPARAM>:

//////////////////////////////////////////////////////////////////////////
void SetZselFreq( int freq, ZSELPARAM *param )
{
    3984:	0f 93       	push	r16
    3986:	1f 93       	push	r17
    3988:	cf 93       	push	r28
    398a:	df 93       	push	r29
    398c:	cd b7       	in	r28, 0x3d	; 61
    398e:	de b7       	in	r29, 0x3e	; 62
    3990:	28 97       	sbiw	r28, 0x08	; 8
    3992:	0f b6       	in	r0, 0x3f	; 63
    3994:	f8 94       	cli
    3996:	de bf       	out	0x3e, r29	; 62
    3998:	0f be       	out	0x3f, r0	; 63
    399a:	cd bf       	out	0x3d, r28	; 61
    399c:	8b 01       	movw	r16, r22
	ZSELPARAM tempParam;
	FindFreqParam(freq,&tempParam);
    399e:	be 01       	movw	r22, r28
    39a0:	6f 5f       	subi	r22, 0xFF	; 255
    39a2:	7f 4f       	sbci	r23, 0xFF	; 255
    39a4:	56 df       	rcall	.-340    	; 0x3852 <_Z13FindFreqParamiP9ZSELPARAM>
	TuneZselCap(&tempParam);	
    39a6:	ce 01       	movw	r24, r28
    39a8:	01 96       	adiw	r24, 0x01	; 1
    39aa:	9a df       	rcall	.-204    	; 0x38e0 <_Z11TuneZselCapP9ZSELPARAM>
	*param = tempParam;//передаем полученные параметры наружу
    39ac:	88 e0       	ldi	r24, 0x08	; 8
    39ae:	fe 01       	movw	r30, r28
    39b0:	31 96       	adiw	r30, 0x01	; 1
    39b2:	d8 01       	movw	r26, r16
    39b4:	01 90       	ld	r0, Z+
    39b6:	0d 92       	st	X+, r0
    39b8:	8a 95       	dec	r24
    39ba:	e1 f7       	brne	.-8      	; 0x39b4 <_Z11SetZselFreqiP9ZSELPARAM+0x30>
}
    39bc:	28 96       	adiw	r28, 0x08	; 8
    39be:	0f b6       	in	r0, 0x3f	; 63
    39c0:	f8 94       	cli
    39c2:	de bf       	out	0x3e, r29	; 62
    39c4:	0f be       	out	0x3f, r0	; 63
    39c6:	cd bf       	out	0x3d, r28	; 61
    39c8:	df 91       	pop	r29
    39ca:	cf 91       	pop	r28
    39cc:	1f 91       	pop	r17
    39ce:	0f 91       	pop	r16
    39d0:	08 95       	ret

000039d2 <_Z13TuneZselAttenP9ZSELPARAM>:
//////////////////////////////////////////////////////////////////////////
void TuneZselAtten( ZSELPARAM * param )
{
    39d2:	af 92       	push	r10
    39d4:	bf 92       	push	r11
    39d6:	cf 92       	push	r12
    39d8:	df 92       	push	r13
    39da:	ef 92       	push	r14
    39dc:	ff 92       	push	r15
    39de:	0f 93       	push	r16
    39e0:	1f 93       	push	r17
    39e2:	cf 93       	push	r28
    39e4:	df 93       	push	r29
    39e6:	cd b7       	in	r28, 0x3d	; 61
    39e8:	de b7       	in	r29, 0x3e	; 62
    39ea:	28 97       	sbiw	r28, 0x08	; 8
    39ec:	0f b6       	in	r0, 0x3f	; 63
    39ee:	f8 94       	cli
    39f0:	de bf       	out	0x3e, r29	; 62
    39f2:	0f be       	out	0x3f, r0	; 63
    39f4:	cd bf       	out	0x3d, r28	; 61
    39f6:	7c 01       	movw	r14, r24
	#define NORMAL_LVL 0xF0
	ZSELPARAM tempParam = *param;
    39f8:	88 e0       	ldi	r24, 0x08	; 8
    39fa:	f7 01       	movw	r30, r14
    39fc:	de 01       	movw	r26, r28
    39fe:	11 96       	adiw	r26, 0x01	; 1
    3a00:	01 90       	ld	r0, Z+
    3a02:	0d 92       	st	X+, r0
    3a04:	8a 95       	dec	r24
    3a06:	e1 f7       	brne	.-8      	; 0x3a00 <_Z13TuneZselAttenP9ZSELPARAM+0x2e>
	
	char startA = 0, stopA = 0x1F,length,center;
	char amplStart, amplStop,amplCenter;
	
	tempParam.A = startA;
    3a08:	1c 82       	std	Y+4, r1	; 0x04
	SetZselParam(&tempParam,AREG);
    3a0a:	64 e0       	ldi	r22, 0x04	; 4
    3a0c:	ce 01       	movw	r24, r28
    3a0e:	01 96       	adiw	r24, 0x01	; 1
    3a10:	e1 de       	rcall	.-574    	; 0x37d4 <_Z12SetZselParamP9ZSELPARAM7regAddr>
	amplStart = read_steady_adc(ADC_UPAS_OUT_PIN);
    3a12:	85 e0       	ldi	r24, 0x05	; 5
    3a14:	0e 94 da 00 	call	0x1b4	; 0x1b4 <_Z15read_steady_adch>
    3a18:	c8 2e       	mov	r12, r24
	
	tempParam.A = stopA;
    3a1a:	8f e1       	ldi	r24, 0x1F	; 31
    3a1c:	8c 83       	std	Y+4, r24	; 0x04
	SetZselParam(&tempParam,AREG);
    3a1e:	64 e0       	ldi	r22, 0x04	; 4
    3a20:	ce 01       	movw	r24, r28
    3a22:	01 96       	adiw	r24, 0x01	; 1
    3a24:	d7 de       	rcall	.-594    	; 0x37d4 <_Z12SetZselParamP9ZSELPARAM7regAddr>
	amplStop = read_steady_adc(ADC_UPAS_OUT_PIN);
    3a26:	85 e0       	ldi	r24, 0x05	; 5
    3a28:	0e 94 da 00 	call	0x1b4	; 0x1b4 <_Z15read_steady_adch>
	
	while((stopA - startA) > 1) {
    3a2c:	2f e1       	ldi	r18, 0x1F	; 31
    3a2e:	30 e0       	ldi	r19, 0x00	; 0
void TuneZselAtten( ZSELPARAM * param )
{
	#define NORMAL_LVL 0xF0
	ZSELPARAM tempParam = *param;
	
	char startA = 0, stopA = 0x1F,length,center;
    3a30:	0f 2e       	mov	r0, r31
    3a32:	ff e1       	ldi	r31, 0x1F	; 31
    3a34:	bf 2e       	mov	r11, r31
    3a36:	f0 2d       	mov	r31, r0
    3a38:	d1 2c       	mov	r13, r1
		
		tempParam.A = center;
		SetZselParam(&tempParam,AREG);
		amplCenter = read_steady_adc(ADC_UPAS_OUT_PIN);

		if (((signed int)(NORMAL_LVL - amplCenter) ) *((signed int)(NORMAL_LVL - amplStart) ) > 0)
    3a3a:	00 ef       	ldi	r16, 0xF0	; 240
    3a3c:	10 e0       	ldi	r17, 0x00	; 0
	tempParam.A = stopA;
	SetZselParam(&tempParam,AREG);
	amplStop = read_steady_adc(ADC_UPAS_OUT_PIN);
	
	while((stopA - startA) > 1) {
		center = startA  + ( stopA - startA)/2;
    3a3e:	a9 01       	movw	r20, r18
    3a40:	33 23       	and	r19, r19
    3a42:	14 f4       	brge	.+4      	; 0x3a48 <_Z13TuneZselAttenP9ZSELPARAM+0x76>
    3a44:	4f 5f       	subi	r20, 0xFF	; 255
    3a46:	5f 4f       	sbci	r21, 0xFF	; 255
    3a48:	55 95       	asr	r21
    3a4a:	47 95       	ror	r20
    3a4c:	ad 2c       	mov	r10, r13
    3a4e:	a4 0e       	add	r10, r20
		
		tempParam.A = center;
    3a50:	ac 82       	std	Y+4, r10	; 0x04
		SetZselParam(&tempParam,AREG);
    3a52:	64 e0       	ldi	r22, 0x04	; 4
    3a54:	ce 01       	movw	r24, r28
    3a56:	01 96       	adiw	r24, 0x01	; 1
    3a58:	bd de       	rcall	.-646    	; 0x37d4 <_Z12SetZselParamP9ZSELPARAM7regAddr>
		amplCenter = read_steady_adc(ADC_UPAS_OUT_PIN);
    3a5a:	85 e0       	ldi	r24, 0x05	; 5
    3a5c:	0e 94 da 00 	call	0x1b4	; 0x1b4 <_Z15read_steady_adch>

		if (((signed int)(NORMAL_LVL - amplCenter) ) *((signed int)(NORMAL_LVL - amplStart) ) > 0)
    3a60:	f8 01       	movw	r30, r16
    3a62:	e8 1b       	sub	r30, r24
    3a64:	f1 09       	sbc	r31, r1
    3a66:	b8 01       	movw	r22, r16
    3a68:	6c 19       	sub	r22, r12
    3a6a:	71 09       	sbc	r23, r1
    3a6c:	e6 9f       	mul	r30, r22
    3a6e:	90 01       	movw	r18, r0
    3a70:	e7 9f       	mul	r30, r23
    3a72:	30 0d       	add	r19, r0
    3a74:	f6 9f       	mul	r31, r22
    3a76:	30 0d       	add	r19, r0
    3a78:	11 24       	eor	r1, r1
    3a7a:	12 16       	cp	r1, r18
    3a7c:	13 06       	cpc	r1, r19
    3a7e:	1c f4       	brge	.+6      	; 0x3a86 <_Z13TuneZselAttenP9ZSELPARAM+0xb4>
		{
			startA = center;
			amplStart = amplCenter;
    3a80:	c8 2e       	mov	r12, r24
		SetZselParam(&tempParam,AREG);
		amplCenter = read_steady_adc(ADC_UPAS_OUT_PIN);

		if (((signed int)(NORMAL_LVL - amplCenter) ) *((signed int)(NORMAL_LVL - amplStart) ) > 0)
		{
			startA = center;
    3a82:	da 2c       	mov	r13, r10
    3a84:	01 c0       	rjmp	.+2      	; 0x3a88 <_Z13TuneZselAttenP9ZSELPARAM+0xb6>
			amplStart = amplCenter;
		}else
		{
			stopA = center;
    3a86:	ba 2c       	mov	r11, r10
	
	tempParam.A = stopA;
	SetZselParam(&tempParam,AREG);
	amplStop = read_steady_adc(ADC_UPAS_OUT_PIN);
	
	while((stopA - startA) > 1) {
    3a88:	2b 2d       	mov	r18, r11
    3a8a:	30 e0       	ldi	r19, 0x00	; 0
    3a8c:	2d 19       	sub	r18, r13
    3a8e:	31 09       	sbc	r19, r1
    3a90:	22 30       	cpi	r18, 0x02	; 2
    3a92:	31 05       	cpc	r19, r1
    3a94:	a4 f6       	brge	.-88     	; 0x3a3e <_Z13TuneZselAttenP9ZSELPARAM+0x6c>
			stopA = center;
			amplStop = center;
			
		}
	}
	*param = tempParam;
    3a96:	88 e0       	ldi	r24, 0x08	; 8
    3a98:	fe 01       	movw	r30, r28
    3a9a:	31 96       	adiw	r30, 0x01	; 1
    3a9c:	d7 01       	movw	r26, r14
    3a9e:	01 90       	ld	r0, Z+
    3aa0:	0d 92       	st	X+, r0
    3aa2:	8a 95       	dec	r24
    3aa4:	e1 f7       	brne	.-8      	; 0x3a9e <_Z13TuneZselAttenP9ZSELPARAM+0xcc>
	
}
    3aa6:	28 96       	adiw	r28, 0x08	; 8
    3aa8:	0f b6       	in	r0, 0x3f	; 63
    3aaa:	f8 94       	cli
    3aac:	de bf       	out	0x3e, r29	; 62
    3aae:	0f be       	out	0x3f, r0	; 63
    3ab0:	cd bf       	out	0x3d, r28	; 61
    3ab2:	df 91       	pop	r29
    3ab4:	cf 91       	pop	r28
    3ab6:	1f 91       	pop	r17
    3ab8:	0f 91       	pop	r16
    3aba:	ff 90       	pop	r15
    3abc:	ef 90       	pop	r14
    3abe:	df 90       	pop	r13
    3ac0:	cf 90       	pop	r12
    3ac2:	bf 90       	pop	r11
    3ac4:	af 90       	pop	r10
    3ac6:	08 95       	ret

00003ac8 <__udivmodhi4>:
    3ac8:	aa 1b       	sub	r26, r26
    3aca:	bb 1b       	sub	r27, r27
    3acc:	51 e1       	ldi	r21, 0x11	; 17
    3ace:	07 c0       	rjmp	.+14     	; 0x3ade <__udivmodhi4_ep>

00003ad0 <__udivmodhi4_loop>:
    3ad0:	aa 1f       	adc	r26, r26
    3ad2:	bb 1f       	adc	r27, r27
    3ad4:	a6 17       	cp	r26, r22
    3ad6:	b7 07       	cpc	r27, r23
    3ad8:	10 f0       	brcs	.+4      	; 0x3ade <__udivmodhi4_ep>
    3ada:	a6 1b       	sub	r26, r22
    3adc:	b7 0b       	sbc	r27, r23

00003ade <__udivmodhi4_ep>:
    3ade:	88 1f       	adc	r24, r24
    3ae0:	99 1f       	adc	r25, r25
    3ae2:	5a 95       	dec	r21
    3ae4:	a9 f7       	brne	.-22     	; 0x3ad0 <__udivmodhi4_loop>
    3ae6:	80 95       	com	r24
    3ae8:	90 95       	com	r25
    3aea:	bc 01       	movw	r22, r24
    3aec:	cd 01       	movw	r24, r26
    3aee:	08 95       	ret

00003af0 <__divmodhi4>:
    3af0:	97 fb       	bst	r25, 7
    3af2:	07 2e       	mov	r0, r23
    3af4:	16 f4       	brtc	.+4      	; 0x3afa <__divmodhi4+0xa>
    3af6:	00 94       	com	r0
    3af8:	06 d0       	rcall	.+12     	; 0x3b06 <__divmodhi4_neg1>
    3afa:	77 fd       	sbrc	r23, 7
    3afc:	08 d0       	rcall	.+16     	; 0x3b0e <__divmodhi4_neg2>
    3afe:	e4 df       	rcall	.-56     	; 0x3ac8 <__udivmodhi4>
    3b00:	07 fc       	sbrc	r0, 7
    3b02:	05 d0       	rcall	.+10     	; 0x3b0e <__divmodhi4_neg2>
    3b04:	3e f4       	brtc	.+14     	; 0x3b14 <__divmodhi4_exit>

00003b06 <__divmodhi4_neg1>:
    3b06:	90 95       	com	r25
    3b08:	81 95       	neg	r24
    3b0a:	9f 4f       	sbci	r25, 0xFF	; 255
    3b0c:	08 95       	ret

00003b0e <__divmodhi4_neg2>:
    3b0e:	70 95       	com	r23
    3b10:	61 95       	neg	r22
    3b12:	7f 4f       	sbci	r23, 0xFF	; 255

00003b14 <__divmodhi4_exit>:
    3b14:	08 95       	ret

00003b16 <__tablejump_elpm__>:
    3b16:	07 90       	elpm	r0, Z+
    3b18:	f6 91       	elpm	r31, Z
    3b1a:	e0 2d       	mov	r30, r0
    3b1c:	09 94       	ijmp

00003b1e <memchr_P>:
    3b1e:	fc 01       	movw	r30, r24
    3b20:	41 50       	subi	r20, 0x01	; 1
    3b22:	50 40       	sbci	r21, 0x00	; 0
    3b24:	30 f0       	brcs	.+12     	; 0x3b32 <memchr_P+0x14>
    3b26:	05 90       	lpm	r0, Z+
    3b28:	06 16       	cp	r0, r22
    3b2a:	d1 f7       	brne	.-12     	; 0x3b20 <memchr_P+0x2>
    3b2c:	31 97       	sbiw	r30, 0x01	; 1
    3b2e:	cf 01       	movw	r24, r30
    3b30:	08 95       	ret
    3b32:	88 27       	eor	r24, r24
    3b34:	99 27       	eor	r25, r25
    3b36:	08 95       	ret

00003b38 <memcmp>:
    3b38:	fb 01       	movw	r30, r22
    3b3a:	dc 01       	movw	r26, r24
    3b3c:	04 c0       	rjmp	.+8      	; 0x3b46 <memcmp+0xe>
    3b3e:	8d 91       	ld	r24, X+
    3b40:	01 90       	ld	r0, Z+
    3b42:	80 19       	sub	r24, r0
    3b44:	21 f4       	brne	.+8      	; 0x3b4e <memcmp+0x16>
    3b46:	41 50       	subi	r20, 0x01	; 1
    3b48:	50 40       	sbci	r21, 0x00	; 0
    3b4a:	c8 f7       	brcc	.-14     	; 0x3b3e <memcmp+0x6>
    3b4c:	88 1b       	sub	r24, r24
    3b4e:	99 0b       	sbc	r25, r25
    3b50:	08 95       	ret

00003b52 <memcpy>:
    3b52:	fb 01       	movw	r30, r22
    3b54:	dc 01       	movw	r26, r24
    3b56:	02 c0       	rjmp	.+4      	; 0x3b5c <memcpy+0xa>
    3b58:	01 90       	ld	r0, Z+
    3b5a:	0d 92       	st	X+, r0
    3b5c:	41 50       	subi	r20, 0x01	; 1
    3b5e:	50 40       	sbci	r21, 0x00	; 0
    3b60:	d8 f7       	brcc	.-10     	; 0x3b58 <memcpy+0x6>
    3b62:	08 95       	ret

00003b64 <strchr>:
    3b64:	fc 01       	movw	r30, r24
    3b66:	81 91       	ld	r24, Z+
    3b68:	86 17       	cp	r24, r22
    3b6a:	21 f0       	breq	.+8      	; 0x3b74 <strchr+0x10>
    3b6c:	88 23       	and	r24, r24
    3b6e:	d9 f7       	brne	.-10     	; 0x3b66 <strchr+0x2>
    3b70:	99 27       	eor	r25, r25
    3b72:	08 95       	ret
    3b74:	31 97       	sbiw	r30, 0x01	; 1
    3b76:	cf 01       	movw	r24, r30
    3b78:	08 95       	ret

00003b7a <__eerd_block_m128>:
    3b7a:	dc 01       	movw	r26, r24
    3b7c:	cb 01       	movw	r24, r22

00003b7e <__eerd_blraw_m128>:
    3b7e:	fc 01       	movw	r30, r24
    3b80:	e1 99       	sbic	0x1c, 1	; 28
    3b82:	fe cf       	rjmp	.-4      	; 0x3b80 <__eerd_blraw_m128+0x2>
    3b84:	06 c0       	rjmp	.+12     	; 0x3b92 <__eerd_blraw_m128+0x14>
    3b86:	ff bb       	out	0x1f, r31	; 31
    3b88:	ee bb       	out	0x1e, r30	; 30
    3b8a:	e0 9a       	sbi	0x1c, 0	; 28
    3b8c:	31 96       	adiw	r30, 0x01	; 1
    3b8e:	0d b2       	in	r0, 0x1d	; 29
    3b90:	0d 92       	st	X+, r0
    3b92:	41 50       	subi	r20, 0x01	; 1
    3b94:	50 40       	sbci	r21, 0x00	; 0
    3b96:	b8 f7       	brcc	.-18     	; 0x3b86 <__eerd_blraw_m128+0x8>
    3b98:	08 95       	ret

00003b9a <__eeupd_block_m128>:
    3b9a:	dc 01       	movw	r26, r24
    3b9c:	a4 0f       	add	r26, r20
    3b9e:	b5 1f       	adc	r27, r21
    3ba0:	41 50       	subi	r20, 0x01	; 1
    3ba2:	50 40       	sbci	r21, 0x00	; 0
    3ba4:	40 f0       	brcs	.+16     	; 0x3bb6 <__eeupd_block_m128+0x1c>
    3ba6:	cb 01       	movw	r24, r22
    3ba8:	84 0f       	add	r24, r20
    3baa:	95 1f       	adc	r25, r21
    3bac:	2e 91       	ld	r18, -X
    3bae:	05 d0       	rcall	.+10     	; 0x3bba <__eeupd_r18_m128>
    3bb0:	41 50       	subi	r20, 0x01	; 1
    3bb2:	50 40       	sbci	r21, 0x00	; 0
    3bb4:	d8 f7       	brcc	.-10     	; 0x3bac <__eeupd_block_m128+0x12>
    3bb6:	08 95       	ret

00003bb8 <__eeupd_byte_m128>:
    3bb8:	26 2f       	mov	r18, r22

00003bba <__eeupd_r18_m128>:
    3bba:	e1 99       	sbic	0x1c, 1	; 28
    3bbc:	fe cf       	rjmp	.-4      	; 0x3bba <__eeupd_r18_m128>
    3bbe:	9f bb       	out	0x1f, r25	; 31
    3bc0:	8e bb       	out	0x1e, r24	; 30
    3bc2:	e0 9a       	sbi	0x1c, 0	; 28
    3bc4:	01 97       	sbiw	r24, 0x01	; 1
    3bc6:	0d b2       	in	r0, 0x1d	; 29
    3bc8:	02 16       	cp	r0, r18
    3bca:	31 f0       	breq	.+12     	; 0x3bd8 <__eeupd_r18_m128+0x1e>
    3bcc:	2d bb       	out	0x1d, r18	; 29
    3bce:	0f b6       	in	r0, 0x3f	; 63
    3bd0:	f8 94       	cli
    3bd2:	e2 9a       	sbi	0x1c, 2	; 28
    3bd4:	e1 9a       	sbi	0x1c, 1	; 28
    3bd6:	0f be       	out	0x3f, r0	; 63
    3bd8:	08 95       	ret

00003bda <__do_global_dtors>:
    3bda:	11 e0       	ldi	r17, 0x01	; 1
    3bdc:	c6 e0       	ldi	r28, 0x06	; 6
    3bde:	d1 e0       	ldi	r29, 0x01	; 1
    3be0:	00 e0       	ldi	r16, 0x00	; 0
    3be2:	05 c0       	rjmp	.+10     	; 0x3bee <__do_global_dtors+0x14>
    3be4:	22 97       	sbiw	r28, 0x02	; 2
    3be6:	01 09       	sbc	r16, r1
    3be8:	fe 01       	movw	r30, r28
    3bea:	0b bf       	out	0x3b, r16	; 59
    3bec:	94 df       	rcall	.-216    	; 0x3b16 <__tablejump_elpm__>
    3bee:	c8 30       	cpi	r28, 0x08	; 8
    3bf0:	d1 07       	cpc	r29, r17
    3bf2:	80 e0       	ldi	r24, 0x00	; 0
    3bf4:	08 07       	cpc	r16, r24
    3bf6:	b1 f7       	brne	.-20     	; 0x3be4 <__do_global_dtors+0xa>
    3bf8:	f8 94       	cli

00003bfa <__stop_program>:
    3bfa:	ff cf       	rjmp	.-2      	; 0x3bfa <__stop_program>
